
Smart_Home.elf:     file format elf32-avr

Sections:
Idx Name          Size      VMA       LMA       File off  Algn
  0 .text         000026e8  00000000  00000000  00000094  2**1
                  CONTENTS, ALLOC, LOAD, READONLY, CODE
  1 .data         000001dc  00800060  000026e8  0000277c  2**0
                  CONTENTS, ALLOC, LOAD, DATA
  2 .bss          00000030  0080023c  0080023c  00002958  2**0
                  ALLOC
  3 .debug_aranges 00000160  00000000  00000000  00002958  2**0
                  CONTENTS, READONLY, DEBUGGING
  4 .debug_pubnames 000001b5  00000000  00000000  00002ab8  2**0
                  CONTENTS, READONLY, DEBUGGING
  5 .debug_info   00001d90  00000000  00000000  00002c6d  2**0
                  CONTENTS, READONLY, DEBUGGING
  6 .debug_abbrev 00001016  00000000  00000000  000049fd  2**0
                  CONTENTS, READONLY, DEBUGGING
  7 .debug_line   00000f2e  00000000  00000000  00005a13  2**0
                  CONTENTS, READONLY, DEBUGGING
  8 .debug_frame  00000180  00000000  00000000  00006944  2**2
                  CONTENTS, READONLY, DEBUGGING
  9 .debug_str    000002b9  00000000  00000000  00006ac4  2**0
                  CONTENTS, READONLY, DEBUGGING
 10 .debug_loc    00000872  00000000  00000000  00006d7d  2**0
                  CONTENTS, READONLY, DEBUGGING
 11 .debug_ranges 00000050  00000000  00000000  000075ef  2**0
                  CONTENTS, READONLY, DEBUGGING

Disassembly of section .text:

00000000 <__vectors>:
       0:	0c 94 2a 00 	jmp	0x54	; 0x54 <__ctors_end>
       4:	0c 94 ef 08 	jmp	0x11de	; 0x11de <__vector_1>
       8:	0c 94 18 09 	jmp	0x1230	; 0x1230 <__vector_2>
       c:	0c 94 41 09 	jmp	0x1282	; 0x1282 <__vector_3>
      10:	0c 94 47 00 	jmp	0x8e	; 0x8e <__bad_interrupt>
      14:	0c 94 47 00 	jmp	0x8e	; 0x8e <__bad_interrupt>
      18:	0c 94 47 00 	jmp	0x8e	; 0x8e <__bad_interrupt>
      1c:	0c 94 fb 06 	jmp	0xdf6	; 0xdf6 <__vector_7>
      20:	0c 94 47 00 	jmp	0x8e	; 0x8e <__bad_interrupt>
      24:	0c 94 47 00 	jmp	0x8e	; 0x8e <__bad_interrupt>
      28:	0c 94 cd 07 	jmp	0xf9a	; 0xf9a <__vector_10>
      2c:	0c 94 1c 08 	jmp	0x1038	; 0x1038 <__vector_11>
      30:	0c 94 47 00 	jmp	0x8e	; 0x8e <__bad_interrupt>
      34:	0c 94 47 00 	jmp	0x8e	; 0x8e <__bad_interrupt>
      38:	0c 94 47 00 	jmp	0x8e	; 0x8e <__bad_interrupt>
      3c:	0c 94 47 00 	jmp	0x8e	; 0x8e <__bad_interrupt>
      40:	0c 94 47 00 	jmp	0x8e	; 0x8e <__bad_interrupt>
      44:	0c 94 47 00 	jmp	0x8e	; 0x8e <__bad_interrupt>
      48:	0c 94 47 00 	jmp	0x8e	; 0x8e <__bad_interrupt>
      4c:	0c 94 47 00 	jmp	0x8e	; 0x8e <__bad_interrupt>
      50:	0c 94 47 00 	jmp	0x8e	; 0x8e <__bad_interrupt>

00000054 <__ctors_end>:
      54:	11 24       	eor	r1, r1
      56:	1f be       	out	0x3f, r1	; 63
      58:	cf e5       	ldi	r28, 0x5F	; 95
      5a:	d8 e0       	ldi	r29, 0x08	; 8
      5c:	de bf       	out	0x3e, r29	; 62
      5e:	cd bf       	out	0x3d, r28	; 61

00000060 <__do_copy_data>:
      60:	12 e0       	ldi	r17, 0x02	; 2
      62:	a0 e6       	ldi	r26, 0x60	; 96
      64:	b0 e0       	ldi	r27, 0x00	; 0
      66:	e8 ee       	ldi	r30, 0xE8	; 232
      68:	f6 e2       	ldi	r31, 0x26	; 38
      6a:	02 c0       	rjmp	.+4      	; 0x70 <.do_copy_data_start>

0000006c <.do_copy_data_loop>:
      6c:	05 90       	lpm	r0, Z+
      6e:	0d 92       	st	X+, r0

00000070 <.do_copy_data_start>:
      70:	ac 33       	cpi	r26, 0x3C	; 60
      72:	b1 07       	cpc	r27, r17
      74:	d9 f7       	brne	.-10     	; 0x6c <.do_copy_data_loop>

00000076 <__do_clear_bss>:
      76:	12 e0       	ldi	r17, 0x02	; 2
      78:	ac e3       	ldi	r26, 0x3C	; 60
      7a:	b2 e0       	ldi	r27, 0x02	; 2
      7c:	01 c0       	rjmp	.+2      	; 0x80 <.do_clear_bss_start>

0000007e <.do_clear_bss_loop>:
      7e:	1d 92       	st	X+, r1

00000080 <.do_clear_bss_start>:
      80:	ac 36       	cpi	r26, 0x6C	; 108
      82:	b1 07       	cpc	r27, r17
      84:	e1 f7       	brne	.-8      	; 0x7e <.do_clear_bss_loop>
      86:	0e 94 55 12 	call	0x24aa	; 0x24aa <main>
      8a:	0c 94 72 13 	jmp	0x26e4	; 0x26e4 <_exit>

0000008e <__bad_interrupt>:
      8e:	0c 94 00 00 	jmp	0	; 0x0 <__vectors>

00000092 <__fixunssfsi>:
      92:	ef 92       	push	r14
      94:	ff 92       	push	r15
      96:	0f 93       	push	r16
      98:	1f 93       	push	r17
      9a:	7b 01       	movw	r14, r22
      9c:	8c 01       	movw	r16, r24
      9e:	20 e0       	ldi	r18, 0x00	; 0
      a0:	30 e0       	ldi	r19, 0x00	; 0
      a2:	40 e0       	ldi	r20, 0x00	; 0
      a4:	5f e4       	ldi	r21, 0x4F	; 79
      a6:	0e 94 19 03 	call	0x632	; 0x632 <__gesf2>
      aa:	88 23       	and	r24, r24
      ac:	8c f0       	brlt	.+34     	; 0xd0 <__fixunssfsi+0x3e>
      ae:	c8 01       	movw	r24, r16
      b0:	b7 01       	movw	r22, r14
      b2:	20 e0       	ldi	r18, 0x00	; 0
      b4:	30 e0       	ldi	r19, 0x00	; 0
      b6:	40 e0       	ldi	r20, 0x00	; 0
      b8:	5f e4       	ldi	r21, 0x4F	; 79
      ba:	0e 94 c1 01 	call	0x382	; 0x382 <__subsf3>
      be:	0e 94 79 03 	call	0x6f2	; 0x6f2 <__fixsfsi>
      c2:	9b 01       	movw	r18, r22
      c4:	ac 01       	movw	r20, r24
      c6:	20 50       	subi	r18, 0x00	; 0
      c8:	30 40       	sbci	r19, 0x00	; 0
      ca:	40 40       	sbci	r20, 0x00	; 0
      cc:	50 48       	sbci	r21, 0x80	; 128
      ce:	06 c0       	rjmp	.+12     	; 0xdc <__fixunssfsi+0x4a>
      d0:	c8 01       	movw	r24, r16
      d2:	b7 01       	movw	r22, r14
      d4:	0e 94 79 03 	call	0x6f2	; 0x6f2 <__fixsfsi>
      d8:	9b 01       	movw	r18, r22
      da:	ac 01       	movw	r20, r24
      dc:	b9 01       	movw	r22, r18
      de:	ca 01       	movw	r24, r20
      e0:	1f 91       	pop	r17
      e2:	0f 91       	pop	r16
      e4:	ff 90       	pop	r15
      e6:	ef 90       	pop	r14
      e8:	08 95       	ret

000000ea <_fpadd_parts>:
      ea:	a0 e0       	ldi	r26, 0x00	; 0
      ec:	b0 e0       	ldi	r27, 0x00	; 0
      ee:	eb e7       	ldi	r30, 0x7B	; 123
      f0:	f0 e0       	ldi	r31, 0x00	; 0
      f2:	0c 94 3b 13 	jmp	0x2676	; 0x2676 <__prologue_saves__>
      f6:	dc 01       	movw	r26, r24
      f8:	2b 01       	movw	r4, r22
      fa:	fa 01       	movw	r30, r20
      fc:	9c 91       	ld	r25, X
      fe:	92 30       	cpi	r25, 0x02	; 2
     100:	08 f4       	brcc	.+2      	; 0x104 <_fpadd_parts+0x1a>
     102:	39 c1       	rjmp	.+626    	; 0x376 <_fpadd_parts+0x28c>
     104:	eb 01       	movw	r28, r22
     106:	88 81       	ld	r24, Y
     108:	82 30       	cpi	r24, 0x02	; 2
     10a:	08 f4       	brcc	.+2      	; 0x10e <_fpadd_parts+0x24>
     10c:	33 c1       	rjmp	.+614    	; 0x374 <_fpadd_parts+0x28a>
     10e:	94 30       	cpi	r25, 0x04	; 4
     110:	69 f4       	brne	.+26     	; 0x12c <_fpadd_parts+0x42>
     112:	84 30       	cpi	r24, 0x04	; 4
     114:	09 f0       	breq	.+2      	; 0x118 <_fpadd_parts+0x2e>
     116:	2f c1       	rjmp	.+606    	; 0x376 <_fpadd_parts+0x28c>
     118:	11 96       	adiw	r26, 0x01	; 1
     11a:	9c 91       	ld	r25, X
     11c:	11 97       	sbiw	r26, 0x01	; 1
     11e:	89 81       	ldd	r24, Y+1	; 0x01
     120:	98 17       	cp	r25, r24
     122:	09 f4       	brne	.+2      	; 0x126 <_fpadd_parts+0x3c>
     124:	28 c1       	rjmp	.+592    	; 0x376 <_fpadd_parts+0x28c>
     126:	a6 e1       	ldi	r26, 0x16	; 22
     128:	b1 e0       	ldi	r27, 0x01	; 1
     12a:	25 c1       	rjmp	.+586    	; 0x376 <_fpadd_parts+0x28c>
     12c:	84 30       	cpi	r24, 0x04	; 4
     12e:	09 f4       	brne	.+2      	; 0x132 <_fpadd_parts+0x48>
     130:	21 c1       	rjmp	.+578    	; 0x374 <_fpadd_parts+0x28a>
     132:	82 30       	cpi	r24, 0x02	; 2
     134:	a9 f4       	brne	.+42     	; 0x160 <_fpadd_parts+0x76>
     136:	92 30       	cpi	r25, 0x02	; 2
     138:	09 f0       	breq	.+2      	; 0x13c <_fpadd_parts+0x52>
     13a:	1d c1       	rjmp	.+570    	; 0x376 <_fpadd_parts+0x28c>
     13c:	9a 01       	movw	r18, r20
     13e:	ad 01       	movw	r20, r26
     140:	88 e0       	ldi	r24, 0x08	; 8
     142:	ea 01       	movw	r28, r20
     144:	09 90       	ld	r0, Y+
     146:	ae 01       	movw	r20, r28
     148:	e9 01       	movw	r28, r18
     14a:	09 92       	st	Y+, r0
     14c:	9e 01       	movw	r18, r28
     14e:	81 50       	subi	r24, 0x01	; 1
     150:	c1 f7       	brne	.-16     	; 0x142 <_fpadd_parts+0x58>
     152:	e2 01       	movw	r28, r4
     154:	89 81       	ldd	r24, Y+1	; 0x01
     156:	11 96       	adiw	r26, 0x01	; 1
     158:	9c 91       	ld	r25, X
     15a:	89 23       	and	r24, r25
     15c:	81 83       	std	Z+1, r24	; 0x01
     15e:	08 c1       	rjmp	.+528    	; 0x370 <_fpadd_parts+0x286>
     160:	92 30       	cpi	r25, 0x02	; 2
     162:	09 f4       	brne	.+2      	; 0x166 <_fpadd_parts+0x7c>
     164:	07 c1       	rjmp	.+526    	; 0x374 <_fpadd_parts+0x28a>
     166:	12 96       	adiw	r26, 0x02	; 2
     168:	2d 90       	ld	r2, X+
     16a:	3c 90       	ld	r3, X
     16c:	13 97       	sbiw	r26, 0x03	; 3
     16e:	eb 01       	movw	r28, r22
     170:	8a 81       	ldd	r24, Y+2	; 0x02
     172:	9b 81       	ldd	r25, Y+3	; 0x03
     174:	14 96       	adiw	r26, 0x04	; 4
     176:	ad 90       	ld	r10, X+
     178:	bd 90       	ld	r11, X+
     17a:	cd 90       	ld	r12, X+
     17c:	dc 90       	ld	r13, X
     17e:	17 97       	sbiw	r26, 0x07	; 7
     180:	ec 80       	ldd	r14, Y+4	; 0x04
     182:	fd 80       	ldd	r15, Y+5	; 0x05
     184:	0e 81       	ldd	r16, Y+6	; 0x06
     186:	1f 81       	ldd	r17, Y+7	; 0x07
     188:	91 01       	movw	r18, r2
     18a:	28 1b       	sub	r18, r24
     18c:	39 0b       	sbc	r19, r25
     18e:	b9 01       	movw	r22, r18
     190:	37 ff       	sbrs	r19, 7
     192:	04 c0       	rjmp	.+8      	; 0x19c <_fpadd_parts+0xb2>
     194:	66 27       	eor	r22, r22
     196:	77 27       	eor	r23, r23
     198:	62 1b       	sub	r22, r18
     19a:	73 0b       	sbc	r23, r19
     19c:	60 32       	cpi	r22, 0x20	; 32
     19e:	71 05       	cpc	r23, r1
     1a0:	0c f0       	brlt	.+2      	; 0x1a4 <_fpadd_parts+0xba>
     1a2:	61 c0       	rjmp	.+194    	; 0x266 <_fpadd_parts+0x17c>
     1a4:	12 16       	cp	r1, r18
     1a6:	13 06       	cpc	r1, r19
     1a8:	6c f5       	brge	.+90     	; 0x204 <_fpadd_parts+0x11a>
     1aa:	37 01       	movw	r6, r14
     1ac:	48 01       	movw	r8, r16
     1ae:	06 2e       	mov	r0, r22
     1b0:	04 c0       	rjmp	.+8      	; 0x1ba <_fpadd_parts+0xd0>
     1b2:	96 94       	lsr	r9
     1b4:	87 94       	ror	r8
     1b6:	77 94       	ror	r7
     1b8:	67 94       	ror	r6
     1ba:	0a 94       	dec	r0
     1bc:	d2 f7       	brpl	.-12     	; 0x1b2 <_fpadd_parts+0xc8>
     1be:	21 e0       	ldi	r18, 0x01	; 1
     1c0:	30 e0       	ldi	r19, 0x00	; 0
     1c2:	40 e0       	ldi	r20, 0x00	; 0
     1c4:	50 e0       	ldi	r21, 0x00	; 0
     1c6:	04 c0       	rjmp	.+8      	; 0x1d0 <_fpadd_parts+0xe6>
     1c8:	22 0f       	add	r18, r18
     1ca:	33 1f       	adc	r19, r19
     1cc:	44 1f       	adc	r20, r20
     1ce:	55 1f       	adc	r21, r21
     1d0:	6a 95       	dec	r22
     1d2:	d2 f7       	brpl	.-12     	; 0x1c8 <_fpadd_parts+0xde>
     1d4:	21 50       	subi	r18, 0x01	; 1
     1d6:	30 40       	sbci	r19, 0x00	; 0
     1d8:	40 40       	sbci	r20, 0x00	; 0
     1da:	50 40       	sbci	r21, 0x00	; 0
     1dc:	2e 21       	and	r18, r14
     1de:	3f 21       	and	r19, r15
     1e0:	40 23       	and	r20, r16
     1e2:	51 23       	and	r21, r17
     1e4:	21 15       	cp	r18, r1
     1e6:	31 05       	cpc	r19, r1
     1e8:	41 05       	cpc	r20, r1
     1ea:	51 05       	cpc	r21, r1
     1ec:	21 f0       	breq	.+8      	; 0x1f6 <_fpadd_parts+0x10c>
     1ee:	21 e0       	ldi	r18, 0x01	; 1
     1f0:	30 e0       	ldi	r19, 0x00	; 0
     1f2:	40 e0       	ldi	r20, 0x00	; 0
     1f4:	50 e0       	ldi	r21, 0x00	; 0
     1f6:	79 01       	movw	r14, r18
     1f8:	8a 01       	movw	r16, r20
     1fa:	e6 28       	or	r14, r6
     1fc:	f7 28       	or	r15, r7
     1fe:	08 29       	or	r16, r8
     200:	19 29       	or	r17, r9
     202:	3c c0       	rjmp	.+120    	; 0x27c <_fpadd_parts+0x192>
     204:	23 2b       	or	r18, r19
     206:	d1 f1       	breq	.+116    	; 0x27c <_fpadd_parts+0x192>
     208:	26 0e       	add	r2, r22
     20a:	37 1e       	adc	r3, r23
     20c:	35 01       	movw	r6, r10
     20e:	46 01       	movw	r8, r12
     210:	06 2e       	mov	r0, r22
     212:	04 c0       	rjmp	.+8      	; 0x21c <_fpadd_parts+0x132>
     214:	96 94       	lsr	r9
     216:	87 94       	ror	r8
     218:	77 94       	ror	r7
     21a:	67 94       	ror	r6
     21c:	0a 94       	dec	r0
     21e:	d2 f7       	brpl	.-12     	; 0x214 <_fpadd_parts+0x12a>
     220:	21 e0       	ldi	r18, 0x01	; 1
     222:	30 e0       	ldi	r19, 0x00	; 0
     224:	40 e0       	ldi	r20, 0x00	; 0
     226:	50 e0       	ldi	r21, 0x00	; 0
     228:	04 c0       	rjmp	.+8      	; 0x232 <_fpadd_parts+0x148>
     22a:	22 0f       	add	r18, r18
     22c:	33 1f       	adc	r19, r19
     22e:	44 1f       	adc	r20, r20
     230:	55 1f       	adc	r21, r21
     232:	6a 95       	dec	r22
     234:	d2 f7       	brpl	.-12     	; 0x22a <_fpadd_parts+0x140>
     236:	21 50       	subi	r18, 0x01	; 1
     238:	30 40       	sbci	r19, 0x00	; 0
     23a:	40 40       	sbci	r20, 0x00	; 0
     23c:	50 40       	sbci	r21, 0x00	; 0
     23e:	2a 21       	and	r18, r10
     240:	3b 21       	and	r19, r11
     242:	4c 21       	and	r20, r12
     244:	5d 21       	and	r21, r13
     246:	21 15       	cp	r18, r1
     248:	31 05       	cpc	r19, r1
     24a:	41 05       	cpc	r20, r1
     24c:	51 05       	cpc	r21, r1
     24e:	21 f0       	breq	.+8      	; 0x258 <_fpadd_parts+0x16e>
     250:	21 e0       	ldi	r18, 0x01	; 1
     252:	30 e0       	ldi	r19, 0x00	; 0
     254:	40 e0       	ldi	r20, 0x00	; 0
     256:	50 e0       	ldi	r21, 0x00	; 0
     258:	59 01       	movw	r10, r18
     25a:	6a 01       	movw	r12, r20
     25c:	a6 28       	or	r10, r6
     25e:	b7 28       	or	r11, r7
     260:	c8 28       	or	r12, r8
     262:	d9 28       	or	r13, r9
     264:	0b c0       	rjmp	.+22     	; 0x27c <_fpadd_parts+0x192>
     266:	82 15       	cp	r24, r2
     268:	93 05       	cpc	r25, r3
     26a:	2c f0       	brlt	.+10     	; 0x276 <_fpadd_parts+0x18c>
     26c:	1c 01       	movw	r2, r24
     26e:	aa 24       	eor	r10, r10
     270:	bb 24       	eor	r11, r11
     272:	65 01       	movw	r12, r10
     274:	03 c0       	rjmp	.+6      	; 0x27c <_fpadd_parts+0x192>
     276:	ee 24       	eor	r14, r14
     278:	ff 24       	eor	r15, r15
     27a:	87 01       	movw	r16, r14
     27c:	11 96       	adiw	r26, 0x01	; 1
     27e:	9c 91       	ld	r25, X
     280:	d2 01       	movw	r26, r4
     282:	11 96       	adiw	r26, 0x01	; 1
     284:	8c 91       	ld	r24, X
     286:	98 17       	cp	r25, r24
     288:	09 f4       	brne	.+2      	; 0x28c <_fpadd_parts+0x1a2>
     28a:	45 c0       	rjmp	.+138    	; 0x316 <_fpadd_parts+0x22c>
     28c:	99 23       	and	r25, r25
     28e:	39 f0       	breq	.+14     	; 0x29e <_fpadd_parts+0x1b4>
     290:	a8 01       	movw	r20, r16
     292:	97 01       	movw	r18, r14
     294:	2a 19       	sub	r18, r10
     296:	3b 09       	sbc	r19, r11
     298:	4c 09       	sbc	r20, r12
     29a:	5d 09       	sbc	r21, r13
     29c:	06 c0       	rjmp	.+12     	; 0x2aa <_fpadd_parts+0x1c0>
     29e:	a6 01       	movw	r20, r12
     2a0:	95 01       	movw	r18, r10
     2a2:	2e 19       	sub	r18, r14
     2a4:	3f 09       	sbc	r19, r15
     2a6:	40 0b       	sbc	r20, r16
     2a8:	51 0b       	sbc	r21, r17
     2aa:	57 fd       	sbrc	r21, 7
     2ac:	08 c0       	rjmp	.+16     	; 0x2be <_fpadd_parts+0x1d4>
     2ae:	11 82       	std	Z+1, r1	; 0x01
     2b0:	33 82       	std	Z+3, r3	; 0x03
     2b2:	22 82       	std	Z+2, r2	; 0x02
     2b4:	24 83       	std	Z+4, r18	; 0x04
     2b6:	35 83       	std	Z+5, r19	; 0x05
     2b8:	46 83       	std	Z+6, r20	; 0x06
     2ba:	57 83       	std	Z+7, r21	; 0x07
     2bc:	1d c0       	rjmp	.+58     	; 0x2f8 <_fpadd_parts+0x20e>
     2be:	81 e0       	ldi	r24, 0x01	; 1
     2c0:	81 83       	std	Z+1, r24	; 0x01
     2c2:	33 82       	std	Z+3, r3	; 0x03
     2c4:	22 82       	std	Z+2, r2	; 0x02
     2c6:	88 27       	eor	r24, r24
     2c8:	99 27       	eor	r25, r25
     2ca:	dc 01       	movw	r26, r24
     2cc:	82 1b       	sub	r24, r18
     2ce:	93 0b       	sbc	r25, r19
     2d0:	a4 0b       	sbc	r26, r20
     2d2:	b5 0b       	sbc	r27, r21
     2d4:	84 83       	std	Z+4, r24	; 0x04
     2d6:	95 83       	std	Z+5, r25	; 0x05
     2d8:	a6 83       	std	Z+6, r26	; 0x06
     2da:	b7 83       	std	Z+7, r27	; 0x07
     2dc:	0d c0       	rjmp	.+26     	; 0x2f8 <_fpadd_parts+0x20e>
     2de:	22 0f       	add	r18, r18
     2e0:	33 1f       	adc	r19, r19
     2e2:	44 1f       	adc	r20, r20
     2e4:	55 1f       	adc	r21, r21
     2e6:	24 83       	std	Z+4, r18	; 0x04
     2e8:	35 83       	std	Z+5, r19	; 0x05
     2ea:	46 83       	std	Z+6, r20	; 0x06
     2ec:	57 83       	std	Z+7, r21	; 0x07
     2ee:	82 81       	ldd	r24, Z+2	; 0x02
     2f0:	93 81       	ldd	r25, Z+3	; 0x03
     2f2:	01 97       	sbiw	r24, 0x01	; 1
     2f4:	93 83       	std	Z+3, r25	; 0x03
     2f6:	82 83       	std	Z+2, r24	; 0x02
     2f8:	24 81       	ldd	r18, Z+4	; 0x04
     2fa:	35 81       	ldd	r19, Z+5	; 0x05
     2fc:	46 81       	ldd	r20, Z+6	; 0x06
     2fe:	57 81       	ldd	r21, Z+7	; 0x07
     300:	da 01       	movw	r26, r20
     302:	c9 01       	movw	r24, r18
     304:	01 97       	sbiw	r24, 0x01	; 1
     306:	a1 09       	sbc	r26, r1
     308:	b1 09       	sbc	r27, r1
     30a:	8f 5f       	subi	r24, 0xFF	; 255
     30c:	9f 4f       	sbci	r25, 0xFF	; 255
     30e:	af 4f       	sbci	r26, 0xFF	; 255
     310:	bf 43       	sbci	r27, 0x3F	; 63
     312:	28 f3       	brcs	.-54     	; 0x2de <_fpadd_parts+0x1f4>
     314:	0b c0       	rjmp	.+22     	; 0x32c <_fpadd_parts+0x242>
     316:	91 83       	std	Z+1, r25	; 0x01
     318:	33 82       	std	Z+3, r3	; 0x03
     31a:	22 82       	std	Z+2, r2	; 0x02
     31c:	ea 0c       	add	r14, r10
     31e:	fb 1c       	adc	r15, r11
     320:	0c 1d       	adc	r16, r12
     322:	1d 1d       	adc	r17, r13
     324:	e4 82       	std	Z+4, r14	; 0x04
     326:	f5 82       	std	Z+5, r15	; 0x05
     328:	06 83       	std	Z+6, r16	; 0x06
     32a:	17 83       	std	Z+7, r17	; 0x07
     32c:	83 e0       	ldi	r24, 0x03	; 3
     32e:	80 83       	st	Z, r24
     330:	24 81       	ldd	r18, Z+4	; 0x04
     332:	35 81       	ldd	r19, Z+5	; 0x05
     334:	46 81       	ldd	r20, Z+6	; 0x06
     336:	57 81       	ldd	r21, Z+7	; 0x07
     338:	57 ff       	sbrs	r21, 7
     33a:	1a c0       	rjmp	.+52     	; 0x370 <_fpadd_parts+0x286>
     33c:	c9 01       	movw	r24, r18
     33e:	aa 27       	eor	r26, r26
     340:	97 fd       	sbrc	r25, 7
     342:	a0 95       	com	r26
     344:	ba 2f       	mov	r27, r26
     346:	81 70       	andi	r24, 0x01	; 1
     348:	90 70       	andi	r25, 0x00	; 0
     34a:	a0 70       	andi	r26, 0x00	; 0
     34c:	b0 70       	andi	r27, 0x00	; 0
     34e:	56 95       	lsr	r21
     350:	47 95       	ror	r20
     352:	37 95       	ror	r19
     354:	27 95       	ror	r18
     356:	82 2b       	or	r24, r18
     358:	93 2b       	or	r25, r19
     35a:	a4 2b       	or	r26, r20
     35c:	b5 2b       	or	r27, r21
     35e:	84 83       	std	Z+4, r24	; 0x04
     360:	95 83       	std	Z+5, r25	; 0x05
     362:	a6 83       	std	Z+6, r26	; 0x06
     364:	b7 83       	std	Z+7, r27	; 0x07
     366:	82 81       	ldd	r24, Z+2	; 0x02
     368:	93 81       	ldd	r25, Z+3	; 0x03
     36a:	01 96       	adiw	r24, 0x01	; 1
     36c:	93 83       	std	Z+3, r25	; 0x03
     36e:	82 83       	std	Z+2, r24	; 0x02
     370:	df 01       	movw	r26, r30
     372:	01 c0       	rjmp	.+2      	; 0x376 <_fpadd_parts+0x28c>
     374:	d2 01       	movw	r26, r4
     376:	cd 01       	movw	r24, r26
     378:	cd b7       	in	r28, 0x3d	; 61
     37a:	de b7       	in	r29, 0x3e	; 62
     37c:	e2 e1       	ldi	r30, 0x12	; 18
     37e:	0c 94 57 13 	jmp	0x26ae	; 0x26ae <__epilogue_restores__>

00000382 <__subsf3>:
     382:	a0 e2       	ldi	r26, 0x20	; 32
     384:	b0 e0       	ldi	r27, 0x00	; 0
     386:	e7 ec       	ldi	r30, 0xC7	; 199
     388:	f1 e0       	ldi	r31, 0x01	; 1
     38a:	0c 94 47 13 	jmp	0x268e	; 0x268e <__prologue_saves__+0x18>
     38e:	69 83       	std	Y+1, r22	; 0x01
     390:	7a 83       	std	Y+2, r23	; 0x02
     392:	8b 83       	std	Y+3, r24	; 0x03
     394:	9c 83       	std	Y+4, r25	; 0x04
     396:	2d 83       	std	Y+5, r18	; 0x05
     398:	3e 83       	std	Y+6, r19	; 0x06
     39a:	4f 83       	std	Y+7, r20	; 0x07
     39c:	58 87       	std	Y+8, r21	; 0x08
     39e:	e9 e0       	ldi	r30, 0x09	; 9
     3a0:	ee 2e       	mov	r14, r30
     3a2:	f1 2c       	mov	r15, r1
     3a4:	ec 0e       	add	r14, r28
     3a6:	fd 1e       	adc	r15, r29
     3a8:	ce 01       	movw	r24, r28
     3aa:	01 96       	adiw	r24, 0x01	; 1
     3ac:	b7 01       	movw	r22, r14
     3ae:	0e 94 6a 05 	call	0xad4	; 0xad4 <__unpack_f>
     3b2:	8e 01       	movw	r16, r28
     3b4:	0f 5e       	subi	r16, 0xEF	; 239
     3b6:	1f 4f       	sbci	r17, 0xFF	; 255
     3b8:	ce 01       	movw	r24, r28
     3ba:	05 96       	adiw	r24, 0x05	; 5
     3bc:	b8 01       	movw	r22, r16
     3be:	0e 94 6a 05 	call	0xad4	; 0xad4 <__unpack_f>
     3c2:	8a 89       	ldd	r24, Y+18	; 0x12
     3c4:	91 e0       	ldi	r25, 0x01	; 1
     3c6:	89 27       	eor	r24, r25
     3c8:	8a 8b       	std	Y+18, r24	; 0x12
     3ca:	c7 01       	movw	r24, r14
     3cc:	b8 01       	movw	r22, r16
     3ce:	ae 01       	movw	r20, r28
     3d0:	47 5e       	subi	r20, 0xE7	; 231
     3d2:	5f 4f       	sbci	r21, 0xFF	; 255
     3d4:	0e 94 75 00 	call	0xea	; 0xea <_fpadd_parts>
     3d8:	0e 94 95 04 	call	0x92a	; 0x92a <__pack_f>
     3dc:	a0 96       	adiw	r28, 0x20	; 32
     3de:	e6 e0       	ldi	r30, 0x06	; 6
     3e0:	0c 94 63 13 	jmp	0x26c6	; 0x26c6 <__epilogue_restores__+0x18>

000003e4 <__addsf3>:
     3e4:	a0 e2       	ldi	r26, 0x20	; 32
     3e6:	b0 e0       	ldi	r27, 0x00	; 0
     3e8:	e8 ef       	ldi	r30, 0xF8	; 248
     3ea:	f1 e0       	ldi	r31, 0x01	; 1
     3ec:	0c 94 47 13 	jmp	0x268e	; 0x268e <__prologue_saves__+0x18>
     3f0:	69 83       	std	Y+1, r22	; 0x01
     3f2:	7a 83       	std	Y+2, r23	; 0x02
     3f4:	8b 83       	std	Y+3, r24	; 0x03
     3f6:	9c 83       	std	Y+4, r25	; 0x04
     3f8:	2d 83       	std	Y+5, r18	; 0x05
     3fa:	3e 83       	std	Y+6, r19	; 0x06
     3fc:	4f 83       	std	Y+7, r20	; 0x07
     3fe:	58 87       	std	Y+8, r21	; 0x08
     400:	f9 e0       	ldi	r31, 0x09	; 9
     402:	ef 2e       	mov	r14, r31
     404:	f1 2c       	mov	r15, r1
     406:	ec 0e       	add	r14, r28
     408:	fd 1e       	adc	r15, r29
     40a:	ce 01       	movw	r24, r28
     40c:	01 96       	adiw	r24, 0x01	; 1
     40e:	b7 01       	movw	r22, r14
     410:	0e 94 6a 05 	call	0xad4	; 0xad4 <__unpack_f>
     414:	8e 01       	movw	r16, r28
     416:	0f 5e       	subi	r16, 0xEF	; 239
     418:	1f 4f       	sbci	r17, 0xFF	; 255
     41a:	ce 01       	movw	r24, r28
     41c:	05 96       	adiw	r24, 0x05	; 5
     41e:	b8 01       	movw	r22, r16
     420:	0e 94 6a 05 	call	0xad4	; 0xad4 <__unpack_f>
     424:	c7 01       	movw	r24, r14
     426:	b8 01       	movw	r22, r16
     428:	ae 01       	movw	r20, r28
     42a:	47 5e       	subi	r20, 0xE7	; 231
     42c:	5f 4f       	sbci	r21, 0xFF	; 255
     42e:	0e 94 75 00 	call	0xea	; 0xea <_fpadd_parts>
     432:	0e 94 95 04 	call	0x92a	; 0x92a <__pack_f>
     436:	a0 96       	adiw	r28, 0x20	; 32
     438:	e6 e0       	ldi	r30, 0x06	; 6
     43a:	0c 94 63 13 	jmp	0x26c6	; 0x26c6 <__epilogue_restores__+0x18>

0000043e <__mulsf3>:
     43e:	a0 e2       	ldi	r26, 0x20	; 32
     440:	b0 e0       	ldi	r27, 0x00	; 0
     442:	e5 e2       	ldi	r30, 0x25	; 37
     444:	f2 e0       	ldi	r31, 0x02	; 2
     446:	0c 94 3b 13 	jmp	0x2676	; 0x2676 <__prologue_saves__>
     44a:	69 83       	std	Y+1, r22	; 0x01
     44c:	7a 83       	std	Y+2, r23	; 0x02
     44e:	8b 83       	std	Y+3, r24	; 0x03
     450:	9c 83       	std	Y+4, r25	; 0x04
     452:	2d 83       	std	Y+5, r18	; 0x05
     454:	3e 83       	std	Y+6, r19	; 0x06
     456:	4f 83       	std	Y+7, r20	; 0x07
     458:	58 87       	std	Y+8, r21	; 0x08
     45a:	ce 01       	movw	r24, r28
     45c:	01 96       	adiw	r24, 0x01	; 1
     45e:	be 01       	movw	r22, r28
     460:	67 5f       	subi	r22, 0xF7	; 247
     462:	7f 4f       	sbci	r23, 0xFF	; 255
     464:	0e 94 6a 05 	call	0xad4	; 0xad4 <__unpack_f>
     468:	ce 01       	movw	r24, r28
     46a:	05 96       	adiw	r24, 0x05	; 5
     46c:	be 01       	movw	r22, r28
     46e:	6f 5e       	subi	r22, 0xEF	; 239
     470:	7f 4f       	sbci	r23, 0xFF	; 255
     472:	0e 94 6a 05 	call	0xad4	; 0xad4 <__unpack_f>
     476:	99 85       	ldd	r25, Y+9	; 0x09
     478:	92 30       	cpi	r25, 0x02	; 2
     47a:	88 f0       	brcs	.+34     	; 0x49e <__mulsf3+0x60>
     47c:	89 89       	ldd	r24, Y+17	; 0x11
     47e:	82 30       	cpi	r24, 0x02	; 2
     480:	c8 f0       	brcs	.+50     	; 0x4b4 <__mulsf3+0x76>
     482:	94 30       	cpi	r25, 0x04	; 4
     484:	19 f4       	brne	.+6      	; 0x48c <__mulsf3+0x4e>
     486:	82 30       	cpi	r24, 0x02	; 2
     488:	51 f4       	brne	.+20     	; 0x49e <__mulsf3+0x60>
     48a:	04 c0       	rjmp	.+8      	; 0x494 <__mulsf3+0x56>
     48c:	84 30       	cpi	r24, 0x04	; 4
     48e:	29 f4       	brne	.+10     	; 0x49a <__mulsf3+0x5c>
     490:	92 30       	cpi	r25, 0x02	; 2
     492:	81 f4       	brne	.+32     	; 0x4b4 <__mulsf3+0x76>
     494:	86 e1       	ldi	r24, 0x16	; 22
     496:	91 e0       	ldi	r25, 0x01	; 1
     498:	c6 c0       	rjmp	.+396    	; 0x626 <__mulsf3+0x1e8>
     49a:	92 30       	cpi	r25, 0x02	; 2
     49c:	49 f4       	brne	.+18     	; 0x4b0 <__mulsf3+0x72>
     49e:	20 e0       	ldi	r18, 0x00	; 0
     4a0:	9a 85       	ldd	r25, Y+10	; 0x0a
     4a2:	8a 89       	ldd	r24, Y+18	; 0x12
     4a4:	98 13       	cpse	r25, r24
     4a6:	21 e0       	ldi	r18, 0x01	; 1
     4a8:	2a 87       	std	Y+10, r18	; 0x0a
     4aa:	ce 01       	movw	r24, r28
     4ac:	09 96       	adiw	r24, 0x09	; 9
     4ae:	bb c0       	rjmp	.+374    	; 0x626 <__mulsf3+0x1e8>
     4b0:	82 30       	cpi	r24, 0x02	; 2
     4b2:	49 f4       	brne	.+18     	; 0x4c6 <__mulsf3+0x88>
     4b4:	20 e0       	ldi	r18, 0x00	; 0
     4b6:	9a 85       	ldd	r25, Y+10	; 0x0a
     4b8:	8a 89       	ldd	r24, Y+18	; 0x12
     4ba:	98 13       	cpse	r25, r24
     4bc:	21 e0       	ldi	r18, 0x01	; 1
     4be:	2a 8b       	std	Y+18, r18	; 0x12
     4c0:	ce 01       	movw	r24, r28
     4c2:	41 96       	adiw	r24, 0x11	; 17
     4c4:	b0 c0       	rjmp	.+352    	; 0x626 <__mulsf3+0x1e8>
     4c6:	2d 84       	ldd	r2, Y+13	; 0x0d
     4c8:	3e 84       	ldd	r3, Y+14	; 0x0e
     4ca:	4f 84       	ldd	r4, Y+15	; 0x0f
     4cc:	58 88       	ldd	r5, Y+16	; 0x10
     4ce:	6d 88       	ldd	r6, Y+21	; 0x15
     4d0:	7e 88       	ldd	r7, Y+22	; 0x16
     4d2:	8f 88       	ldd	r8, Y+23	; 0x17
     4d4:	98 8c       	ldd	r9, Y+24	; 0x18
     4d6:	ee 24       	eor	r14, r14
     4d8:	ff 24       	eor	r15, r15
     4da:	87 01       	movw	r16, r14
     4dc:	aa 24       	eor	r10, r10
     4de:	bb 24       	eor	r11, r11
     4e0:	65 01       	movw	r12, r10
     4e2:	40 e0       	ldi	r20, 0x00	; 0
     4e4:	50 e0       	ldi	r21, 0x00	; 0
     4e6:	60 e0       	ldi	r22, 0x00	; 0
     4e8:	70 e0       	ldi	r23, 0x00	; 0
     4ea:	e0 e0       	ldi	r30, 0x00	; 0
     4ec:	f0 e0       	ldi	r31, 0x00	; 0
     4ee:	c1 01       	movw	r24, r2
     4f0:	81 70       	andi	r24, 0x01	; 1
     4f2:	90 70       	andi	r25, 0x00	; 0
     4f4:	89 2b       	or	r24, r25
     4f6:	e9 f0       	breq	.+58     	; 0x532 <__mulsf3+0xf4>
     4f8:	e6 0c       	add	r14, r6
     4fa:	f7 1c       	adc	r15, r7
     4fc:	08 1d       	adc	r16, r8
     4fe:	19 1d       	adc	r17, r9
     500:	9a 01       	movw	r18, r20
     502:	ab 01       	movw	r20, r22
     504:	2a 0d       	add	r18, r10
     506:	3b 1d       	adc	r19, r11
     508:	4c 1d       	adc	r20, r12
     50a:	5d 1d       	adc	r21, r13
     50c:	80 e0       	ldi	r24, 0x00	; 0
     50e:	90 e0       	ldi	r25, 0x00	; 0
     510:	a0 e0       	ldi	r26, 0x00	; 0
     512:	b0 e0       	ldi	r27, 0x00	; 0
     514:	e6 14       	cp	r14, r6
     516:	f7 04       	cpc	r15, r7
     518:	08 05       	cpc	r16, r8
     51a:	19 05       	cpc	r17, r9
     51c:	20 f4       	brcc	.+8      	; 0x526 <__mulsf3+0xe8>
     51e:	81 e0       	ldi	r24, 0x01	; 1
     520:	90 e0       	ldi	r25, 0x00	; 0
     522:	a0 e0       	ldi	r26, 0x00	; 0
     524:	b0 e0       	ldi	r27, 0x00	; 0
     526:	ba 01       	movw	r22, r20
     528:	a9 01       	movw	r20, r18
     52a:	48 0f       	add	r20, r24
     52c:	59 1f       	adc	r21, r25
     52e:	6a 1f       	adc	r22, r26
     530:	7b 1f       	adc	r23, r27
     532:	aa 0c       	add	r10, r10
     534:	bb 1c       	adc	r11, r11
     536:	cc 1c       	adc	r12, r12
     538:	dd 1c       	adc	r13, r13
     53a:	97 fe       	sbrs	r9, 7
     53c:	08 c0       	rjmp	.+16     	; 0x54e <__mulsf3+0x110>
     53e:	81 e0       	ldi	r24, 0x01	; 1
     540:	90 e0       	ldi	r25, 0x00	; 0
     542:	a0 e0       	ldi	r26, 0x00	; 0
     544:	b0 e0       	ldi	r27, 0x00	; 0
     546:	a8 2a       	or	r10, r24
     548:	b9 2a       	or	r11, r25
     54a:	ca 2a       	or	r12, r26
     54c:	db 2a       	or	r13, r27
     54e:	31 96       	adiw	r30, 0x01	; 1
     550:	e0 32       	cpi	r30, 0x20	; 32
     552:	f1 05       	cpc	r31, r1
     554:	49 f0       	breq	.+18     	; 0x568 <__mulsf3+0x12a>
     556:	66 0c       	add	r6, r6
     558:	77 1c       	adc	r7, r7
     55a:	88 1c       	adc	r8, r8
     55c:	99 1c       	adc	r9, r9
     55e:	56 94       	lsr	r5
     560:	47 94       	ror	r4
     562:	37 94       	ror	r3
     564:	27 94       	ror	r2
     566:	c3 cf       	rjmp	.-122    	; 0x4ee <__mulsf3+0xb0>
     568:	fa 85       	ldd	r31, Y+10	; 0x0a
     56a:	ea 89       	ldd	r30, Y+18	; 0x12
     56c:	2b 89       	ldd	r18, Y+19	; 0x13
     56e:	3c 89       	ldd	r19, Y+20	; 0x14
     570:	8b 85       	ldd	r24, Y+11	; 0x0b
     572:	9c 85       	ldd	r25, Y+12	; 0x0c
     574:	28 0f       	add	r18, r24
     576:	39 1f       	adc	r19, r25
     578:	2e 5f       	subi	r18, 0xFE	; 254
     57a:	3f 4f       	sbci	r19, 0xFF	; 255
     57c:	17 c0       	rjmp	.+46     	; 0x5ac <__mulsf3+0x16e>
     57e:	ca 01       	movw	r24, r20
     580:	81 70       	andi	r24, 0x01	; 1
     582:	90 70       	andi	r25, 0x00	; 0
     584:	89 2b       	or	r24, r25
     586:	61 f0       	breq	.+24     	; 0x5a0 <__mulsf3+0x162>
     588:	16 95       	lsr	r17
     58a:	07 95       	ror	r16
     58c:	f7 94       	ror	r15
     58e:	e7 94       	ror	r14
     590:	80 e0       	ldi	r24, 0x00	; 0
     592:	90 e0       	ldi	r25, 0x00	; 0
     594:	a0 e0       	ldi	r26, 0x00	; 0
     596:	b0 e8       	ldi	r27, 0x80	; 128
     598:	e8 2a       	or	r14, r24
     59a:	f9 2a       	or	r15, r25
     59c:	0a 2b       	or	r16, r26
     59e:	1b 2b       	or	r17, r27
     5a0:	76 95       	lsr	r23
     5a2:	67 95       	ror	r22
     5a4:	57 95       	ror	r21
     5a6:	47 95       	ror	r20
     5a8:	2f 5f       	subi	r18, 0xFF	; 255
     5aa:	3f 4f       	sbci	r19, 0xFF	; 255
     5ac:	77 fd       	sbrc	r23, 7
     5ae:	e7 cf       	rjmp	.-50     	; 0x57e <__mulsf3+0x140>
     5b0:	0c c0       	rjmp	.+24     	; 0x5ca <__mulsf3+0x18c>
     5b2:	44 0f       	add	r20, r20
     5b4:	55 1f       	adc	r21, r21
     5b6:	66 1f       	adc	r22, r22
     5b8:	77 1f       	adc	r23, r23
     5ba:	17 fd       	sbrc	r17, 7
     5bc:	41 60       	ori	r20, 0x01	; 1
     5be:	ee 0c       	add	r14, r14
     5c0:	ff 1c       	adc	r15, r15
     5c2:	00 1f       	adc	r16, r16
     5c4:	11 1f       	adc	r17, r17
     5c6:	21 50       	subi	r18, 0x01	; 1
     5c8:	30 40       	sbci	r19, 0x00	; 0
     5ca:	40 30       	cpi	r20, 0x00	; 0
     5cc:	90 e0       	ldi	r25, 0x00	; 0
     5ce:	59 07       	cpc	r21, r25
     5d0:	90 e0       	ldi	r25, 0x00	; 0
     5d2:	69 07       	cpc	r22, r25
     5d4:	90 e4       	ldi	r25, 0x40	; 64
     5d6:	79 07       	cpc	r23, r25
     5d8:	60 f3       	brcs	.-40     	; 0x5b2 <__mulsf3+0x174>
     5da:	2b 8f       	std	Y+27, r18	; 0x1b
     5dc:	3c 8f       	std	Y+28, r19	; 0x1c
     5de:	db 01       	movw	r26, r22
     5e0:	ca 01       	movw	r24, r20
     5e2:	8f 77       	andi	r24, 0x7F	; 127
     5e4:	90 70       	andi	r25, 0x00	; 0
     5e6:	a0 70       	andi	r26, 0x00	; 0
     5e8:	b0 70       	andi	r27, 0x00	; 0
     5ea:	80 34       	cpi	r24, 0x40	; 64
     5ec:	91 05       	cpc	r25, r1
     5ee:	a1 05       	cpc	r26, r1
     5f0:	b1 05       	cpc	r27, r1
     5f2:	61 f4       	brne	.+24     	; 0x60c <__mulsf3+0x1ce>
     5f4:	47 fd       	sbrc	r20, 7
     5f6:	0a c0       	rjmp	.+20     	; 0x60c <__mulsf3+0x1ce>
     5f8:	e1 14       	cp	r14, r1
     5fa:	f1 04       	cpc	r15, r1
     5fc:	01 05       	cpc	r16, r1
     5fe:	11 05       	cpc	r17, r1
     600:	29 f0       	breq	.+10     	; 0x60c <__mulsf3+0x1ce>
     602:	40 5c       	subi	r20, 0xC0	; 192
     604:	5f 4f       	sbci	r21, 0xFF	; 255
     606:	6f 4f       	sbci	r22, 0xFF	; 255
     608:	7f 4f       	sbci	r23, 0xFF	; 255
     60a:	40 78       	andi	r20, 0x80	; 128
     60c:	1a 8e       	std	Y+26, r1	; 0x1a
     60e:	fe 17       	cp	r31, r30
     610:	11 f0       	breq	.+4      	; 0x616 <__mulsf3+0x1d8>
     612:	81 e0       	ldi	r24, 0x01	; 1
     614:	8a 8f       	std	Y+26, r24	; 0x1a
     616:	4d 8f       	std	Y+29, r20	; 0x1d
     618:	5e 8f       	std	Y+30, r21	; 0x1e
     61a:	6f 8f       	std	Y+31, r22	; 0x1f
     61c:	78 a3       	std	Y+32, r23	; 0x20
     61e:	83 e0       	ldi	r24, 0x03	; 3
     620:	89 8f       	std	Y+25, r24	; 0x19
     622:	ce 01       	movw	r24, r28
     624:	49 96       	adiw	r24, 0x19	; 25
     626:	0e 94 95 04 	call	0x92a	; 0x92a <__pack_f>
     62a:	a0 96       	adiw	r28, 0x20	; 32
     62c:	e2 e1       	ldi	r30, 0x12	; 18
     62e:	0c 94 57 13 	jmp	0x26ae	; 0x26ae <__epilogue_restores__>

00000632 <__gesf2>:
     632:	a8 e1       	ldi	r26, 0x18	; 24
     634:	b0 e0       	ldi	r27, 0x00	; 0
     636:	ef e1       	ldi	r30, 0x1F	; 31
     638:	f3 e0       	ldi	r31, 0x03	; 3
     63a:	0c 94 47 13 	jmp	0x268e	; 0x268e <__prologue_saves__+0x18>
     63e:	69 83       	std	Y+1, r22	; 0x01
     640:	7a 83       	std	Y+2, r23	; 0x02
     642:	8b 83       	std	Y+3, r24	; 0x03
     644:	9c 83       	std	Y+4, r25	; 0x04
     646:	2d 83       	std	Y+5, r18	; 0x05
     648:	3e 83       	std	Y+6, r19	; 0x06
     64a:	4f 83       	std	Y+7, r20	; 0x07
     64c:	58 87       	std	Y+8, r21	; 0x08
     64e:	89 e0       	ldi	r24, 0x09	; 9
     650:	e8 2e       	mov	r14, r24
     652:	f1 2c       	mov	r15, r1
     654:	ec 0e       	add	r14, r28
     656:	fd 1e       	adc	r15, r29
     658:	ce 01       	movw	r24, r28
     65a:	01 96       	adiw	r24, 0x01	; 1
     65c:	b7 01       	movw	r22, r14
     65e:	0e 94 6a 05 	call	0xad4	; 0xad4 <__unpack_f>
     662:	8e 01       	movw	r16, r28
     664:	0f 5e       	subi	r16, 0xEF	; 239
     666:	1f 4f       	sbci	r17, 0xFF	; 255
     668:	ce 01       	movw	r24, r28
     66a:	05 96       	adiw	r24, 0x05	; 5
     66c:	b8 01       	movw	r22, r16
     66e:	0e 94 6a 05 	call	0xad4	; 0xad4 <__unpack_f>
     672:	89 85       	ldd	r24, Y+9	; 0x09
     674:	82 30       	cpi	r24, 0x02	; 2
     676:	40 f0       	brcs	.+16     	; 0x688 <__gesf2+0x56>
     678:	89 89       	ldd	r24, Y+17	; 0x11
     67a:	82 30       	cpi	r24, 0x02	; 2
     67c:	28 f0       	brcs	.+10     	; 0x688 <__gesf2+0x56>
     67e:	c7 01       	movw	r24, r14
     680:	b8 01       	movw	r22, r16
     682:	0e 94 e2 05 	call	0xbc4	; 0xbc4 <__fpcmp_parts_f>
     686:	01 c0       	rjmp	.+2      	; 0x68a <__gesf2+0x58>
     688:	8f ef       	ldi	r24, 0xFF	; 255
     68a:	68 96       	adiw	r28, 0x18	; 24
     68c:	e6 e0       	ldi	r30, 0x06	; 6
     68e:	0c 94 63 13 	jmp	0x26c6	; 0x26c6 <__epilogue_restores__+0x18>

00000692 <__ltsf2>:
     692:	a8 e1       	ldi	r26, 0x18	; 24
     694:	b0 e0       	ldi	r27, 0x00	; 0
     696:	ef e4       	ldi	r30, 0x4F	; 79
     698:	f3 e0       	ldi	r31, 0x03	; 3
     69a:	0c 94 47 13 	jmp	0x268e	; 0x268e <__prologue_saves__+0x18>
     69e:	69 83       	std	Y+1, r22	; 0x01
     6a0:	7a 83       	std	Y+2, r23	; 0x02
     6a2:	8b 83       	std	Y+3, r24	; 0x03
     6a4:	9c 83       	std	Y+4, r25	; 0x04
     6a6:	2d 83       	std	Y+5, r18	; 0x05
     6a8:	3e 83       	std	Y+6, r19	; 0x06
     6aa:	4f 83       	std	Y+7, r20	; 0x07
     6ac:	58 87       	std	Y+8, r21	; 0x08
     6ae:	89 e0       	ldi	r24, 0x09	; 9
     6b0:	e8 2e       	mov	r14, r24
     6b2:	f1 2c       	mov	r15, r1
     6b4:	ec 0e       	add	r14, r28
     6b6:	fd 1e       	adc	r15, r29
     6b8:	ce 01       	movw	r24, r28
     6ba:	01 96       	adiw	r24, 0x01	; 1
     6bc:	b7 01       	movw	r22, r14
     6be:	0e 94 6a 05 	call	0xad4	; 0xad4 <__unpack_f>
     6c2:	8e 01       	movw	r16, r28
     6c4:	0f 5e       	subi	r16, 0xEF	; 239
     6c6:	1f 4f       	sbci	r17, 0xFF	; 255
     6c8:	ce 01       	movw	r24, r28
     6ca:	05 96       	adiw	r24, 0x05	; 5
     6cc:	b8 01       	movw	r22, r16
     6ce:	0e 94 6a 05 	call	0xad4	; 0xad4 <__unpack_f>
     6d2:	89 85       	ldd	r24, Y+9	; 0x09
     6d4:	82 30       	cpi	r24, 0x02	; 2
     6d6:	40 f0       	brcs	.+16     	; 0x6e8 <__ltsf2+0x56>
     6d8:	89 89       	ldd	r24, Y+17	; 0x11
     6da:	82 30       	cpi	r24, 0x02	; 2
     6dc:	28 f0       	brcs	.+10     	; 0x6e8 <__ltsf2+0x56>
     6de:	c7 01       	movw	r24, r14
     6e0:	b8 01       	movw	r22, r16
     6e2:	0e 94 e2 05 	call	0xbc4	; 0xbc4 <__fpcmp_parts_f>
     6e6:	01 c0       	rjmp	.+2      	; 0x6ea <__ltsf2+0x58>
     6e8:	81 e0       	ldi	r24, 0x01	; 1
     6ea:	68 96       	adiw	r28, 0x18	; 24
     6ec:	e6 e0       	ldi	r30, 0x06	; 6
     6ee:	0c 94 63 13 	jmp	0x26c6	; 0x26c6 <__epilogue_restores__+0x18>

000006f2 <__fixsfsi>:
     6f2:	ac e0       	ldi	r26, 0x0C	; 12
     6f4:	b0 e0       	ldi	r27, 0x00	; 0
     6f6:	ef e7       	ldi	r30, 0x7F	; 127
     6f8:	f3 e0       	ldi	r31, 0x03	; 3
     6fa:	0c 94 4b 13 	jmp	0x2696	; 0x2696 <__prologue_saves__+0x20>
     6fe:	69 83       	std	Y+1, r22	; 0x01
     700:	7a 83       	std	Y+2, r23	; 0x02
     702:	8b 83       	std	Y+3, r24	; 0x03
     704:	9c 83       	std	Y+4, r25	; 0x04
     706:	ce 01       	movw	r24, r28
     708:	01 96       	adiw	r24, 0x01	; 1
     70a:	be 01       	movw	r22, r28
     70c:	6b 5f       	subi	r22, 0xFB	; 251
     70e:	7f 4f       	sbci	r23, 0xFF	; 255
     710:	0e 94 6a 05 	call	0xad4	; 0xad4 <__unpack_f>
     714:	8d 81       	ldd	r24, Y+5	; 0x05
     716:	82 30       	cpi	r24, 0x02	; 2
     718:	61 f1       	breq	.+88     	; 0x772 <__fixsfsi+0x80>
     71a:	82 30       	cpi	r24, 0x02	; 2
     71c:	50 f1       	brcs	.+84     	; 0x772 <__fixsfsi+0x80>
     71e:	84 30       	cpi	r24, 0x04	; 4
     720:	21 f4       	brne	.+8      	; 0x72a <__fixsfsi+0x38>
     722:	8e 81       	ldd	r24, Y+6	; 0x06
     724:	88 23       	and	r24, r24
     726:	51 f1       	breq	.+84     	; 0x77c <__fixsfsi+0x8a>
     728:	2e c0       	rjmp	.+92     	; 0x786 <__fixsfsi+0x94>
     72a:	2f 81       	ldd	r18, Y+7	; 0x07
     72c:	38 85       	ldd	r19, Y+8	; 0x08
     72e:	37 fd       	sbrc	r19, 7
     730:	20 c0       	rjmp	.+64     	; 0x772 <__fixsfsi+0x80>
     732:	6e 81       	ldd	r22, Y+6	; 0x06
     734:	2f 31       	cpi	r18, 0x1F	; 31
     736:	31 05       	cpc	r19, r1
     738:	1c f0       	brlt	.+6      	; 0x740 <__fixsfsi+0x4e>
     73a:	66 23       	and	r22, r22
     73c:	f9 f0       	breq	.+62     	; 0x77c <__fixsfsi+0x8a>
     73e:	23 c0       	rjmp	.+70     	; 0x786 <__fixsfsi+0x94>
     740:	8e e1       	ldi	r24, 0x1E	; 30
     742:	90 e0       	ldi	r25, 0x00	; 0
     744:	82 1b       	sub	r24, r18
     746:	93 0b       	sbc	r25, r19
     748:	29 85       	ldd	r18, Y+9	; 0x09
     74a:	3a 85       	ldd	r19, Y+10	; 0x0a
     74c:	4b 85       	ldd	r20, Y+11	; 0x0b
     74e:	5c 85       	ldd	r21, Y+12	; 0x0c
     750:	04 c0       	rjmp	.+8      	; 0x75a <__fixsfsi+0x68>
     752:	56 95       	lsr	r21
     754:	47 95       	ror	r20
     756:	37 95       	ror	r19
     758:	27 95       	ror	r18
     75a:	8a 95       	dec	r24
     75c:	d2 f7       	brpl	.-12     	; 0x752 <__fixsfsi+0x60>
     75e:	66 23       	and	r22, r22
     760:	b1 f0       	breq	.+44     	; 0x78e <__fixsfsi+0x9c>
     762:	50 95       	com	r21
     764:	40 95       	com	r20
     766:	30 95       	com	r19
     768:	21 95       	neg	r18
     76a:	3f 4f       	sbci	r19, 0xFF	; 255
     76c:	4f 4f       	sbci	r20, 0xFF	; 255
     76e:	5f 4f       	sbci	r21, 0xFF	; 255
     770:	0e c0       	rjmp	.+28     	; 0x78e <__fixsfsi+0x9c>
     772:	20 e0       	ldi	r18, 0x00	; 0
     774:	30 e0       	ldi	r19, 0x00	; 0
     776:	40 e0       	ldi	r20, 0x00	; 0
     778:	50 e0       	ldi	r21, 0x00	; 0
     77a:	09 c0       	rjmp	.+18     	; 0x78e <__fixsfsi+0x9c>
     77c:	2f ef       	ldi	r18, 0xFF	; 255
     77e:	3f ef       	ldi	r19, 0xFF	; 255
     780:	4f ef       	ldi	r20, 0xFF	; 255
     782:	5f e7       	ldi	r21, 0x7F	; 127
     784:	04 c0       	rjmp	.+8      	; 0x78e <__fixsfsi+0x9c>
     786:	20 e0       	ldi	r18, 0x00	; 0
     788:	30 e0       	ldi	r19, 0x00	; 0
     78a:	40 e0       	ldi	r20, 0x00	; 0
     78c:	50 e8       	ldi	r21, 0x80	; 128
     78e:	b9 01       	movw	r22, r18
     790:	ca 01       	movw	r24, r20
     792:	2c 96       	adiw	r28, 0x0c	; 12
     794:	e2 e0       	ldi	r30, 0x02	; 2
     796:	0c 94 67 13 	jmp	0x26ce	; 0x26ce <__epilogue_restores__+0x20>

0000079a <__floatunsisf>:
     79a:	a8 e0       	ldi	r26, 0x08	; 8
     79c:	b0 e0       	ldi	r27, 0x00	; 0
     79e:	e3 ed       	ldi	r30, 0xD3	; 211
     7a0:	f3 e0       	ldi	r31, 0x03	; 3
     7a2:	0c 94 43 13 	jmp	0x2686	; 0x2686 <__prologue_saves__+0x10>
     7a6:	7b 01       	movw	r14, r22
     7a8:	8c 01       	movw	r16, r24
     7aa:	61 15       	cp	r22, r1
     7ac:	71 05       	cpc	r23, r1
     7ae:	81 05       	cpc	r24, r1
     7b0:	91 05       	cpc	r25, r1
     7b2:	19 f4       	brne	.+6      	; 0x7ba <__floatunsisf+0x20>
     7b4:	82 e0       	ldi	r24, 0x02	; 2
     7b6:	89 83       	std	Y+1, r24	; 0x01
     7b8:	60 c0       	rjmp	.+192    	; 0x87a <__stack+0x1b>
     7ba:	83 e0       	ldi	r24, 0x03	; 3
     7bc:	89 83       	std	Y+1, r24	; 0x01
     7be:	8e e1       	ldi	r24, 0x1E	; 30
     7c0:	c8 2e       	mov	r12, r24
     7c2:	d1 2c       	mov	r13, r1
     7c4:	dc 82       	std	Y+4, r13	; 0x04
     7c6:	cb 82       	std	Y+3, r12	; 0x03
     7c8:	ed 82       	std	Y+5, r14	; 0x05
     7ca:	fe 82       	std	Y+6, r15	; 0x06
     7cc:	0f 83       	std	Y+7, r16	; 0x07
     7ce:	18 87       	std	Y+8, r17	; 0x08
     7d0:	c8 01       	movw	r24, r16
     7d2:	b7 01       	movw	r22, r14
     7d4:	0e 94 46 04 	call	0x88c	; 0x88c <__clzsi2>
     7d8:	fc 01       	movw	r30, r24
     7da:	31 97       	sbiw	r30, 0x01	; 1
     7dc:	f7 ff       	sbrs	r31, 7
     7de:	3b c0       	rjmp	.+118    	; 0x856 <__floatunsisf+0xbc>
     7e0:	22 27       	eor	r18, r18
     7e2:	33 27       	eor	r19, r19
     7e4:	2e 1b       	sub	r18, r30
     7e6:	3f 0b       	sbc	r19, r31
     7e8:	57 01       	movw	r10, r14
     7ea:	68 01       	movw	r12, r16
     7ec:	02 2e       	mov	r0, r18
     7ee:	04 c0       	rjmp	.+8      	; 0x7f8 <__floatunsisf+0x5e>
     7f0:	d6 94       	lsr	r13
     7f2:	c7 94       	ror	r12
     7f4:	b7 94       	ror	r11
     7f6:	a7 94       	ror	r10
     7f8:	0a 94       	dec	r0
     7fa:	d2 f7       	brpl	.-12     	; 0x7f0 <__floatunsisf+0x56>
     7fc:	40 e0       	ldi	r20, 0x00	; 0
     7fe:	50 e0       	ldi	r21, 0x00	; 0
     800:	60 e0       	ldi	r22, 0x00	; 0
     802:	70 e0       	ldi	r23, 0x00	; 0
     804:	81 e0       	ldi	r24, 0x01	; 1
     806:	90 e0       	ldi	r25, 0x00	; 0
     808:	a0 e0       	ldi	r26, 0x00	; 0
     80a:	b0 e0       	ldi	r27, 0x00	; 0
     80c:	04 c0       	rjmp	.+8      	; 0x816 <__floatunsisf+0x7c>
     80e:	88 0f       	add	r24, r24
     810:	99 1f       	adc	r25, r25
     812:	aa 1f       	adc	r26, r26
     814:	bb 1f       	adc	r27, r27
     816:	2a 95       	dec	r18
     818:	d2 f7       	brpl	.-12     	; 0x80e <__floatunsisf+0x74>
     81a:	01 97       	sbiw	r24, 0x01	; 1
     81c:	a1 09       	sbc	r26, r1
     81e:	b1 09       	sbc	r27, r1
     820:	8e 21       	and	r24, r14
     822:	9f 21       	and	r25, r15
     824:	a0 23       	and	r26, r16
     826:	b1 23       	and	r27, r17
     828:	00 97       	sbiw	r24, 0x00	; 0
     82a:	a1 05       	cpc	r26, r1
     82c:	b1 05       	cpc	r27, r1
     82e:	21 f0       	breq	.+8      	; 0x838 <__floatunsisf+0x9e>
     830:	41 e0       	ldi	r20, 0x01	; 1
     832:	50 e0       	ldi	r21, 0x00	; 0
     834:	60 e0       	ldi	r22, 0x00	; 0
     836:	70 e0       	ldi	r23, 0x00	; 0
     838:	4a 29       	or	r20, r10
     83a:	5b 29       	or	r21, r11
     83c:	6c 29       	or	r22, r12
     83e:	7d 29       	or	r23, r13
     840:	4d 83       	std	Y+5, r20	; 0x05
     842:	5e 83       	std	Y+6, r21	; 0x06
     844:	6f 83       	std	Y+7, r22	; 0x07
     846:	78 87       	std	Y+8, r23	; 0x08
     848:	8e e1       	ldi	r24, 0x1E	; 30
     84a:	90 e0       	ldi	r25, 0x00	; 0
     84c:	8e 1b       	sub	r24, r30
     84e:	9f 0b       	sbc	r25, r31
     850:	9c 83       	std	Y+4, r25	; 0x04
     852:	8b 83       	std	Y+3, r24	; 0x03
     854:	12 c0       	rjmp	.+36     	; 0x87a <__stack+0x1b>
     856:	30 97       	sbiw	r30, 0x00	; 0
     858:	81 f0       	breq	.+32     	; 0x87a <__stack+0x1b>
     85a:	0e 2e       	mov	r0, r30
     85c:	04 c0       	rjmp	.+8      	; 0x866 <__stack+0x7>
     85e:	ee 0c       	add	r14, r14
     860:	ff 1c       	adc	r15, r15
     862:	00 1f       	adc	r16, r16
     864:	11 1f       	adc	r17, r17
     866:	0a 94       	dec	r0
     868:	d2 f7       	brpl	.-12     	; 0x85e <__floatunsisf+0xc4>
     86a:	ed 82       	std	Y+5, r14	; 0x05
     86c:	fe 82       	std	Y+6, r15	; 0x06
     86e:	0f 83       	std	Y+7, r16	; 0x07
     870:	18 87       	std	Y+8, r17	; 0x08
     872:	ce 1a       	sub	r12, r30
     874:	df 0a       	sbc	r13, r31
     876:	dc 82       	std	Y+4, r13	; 0x04
     878:	cb 82       	std	Y+3, r12	; 0x03
     87a:	1a 82       	std	Y+2, r1	; 0x02
     87c:	ce 01       	movw	r24, r28
     87e:	01 96       	adiw	r24, 0x01	; 1
     880:	0e 94 95 04 	call	0x92a	; 0x92a <__pack_f>
     884:	28 96       	adiw	r28, 0x08	; 8
     886:	ea e0       	ldi	r30, 0x0A	; 10
     888:	0c 94 5f 13 	jmp	0x26be	; 0x26be <__epilogue_restores__+0x10>

0000088c <__clzsi2>:
     88c:	ef 92       	push	r14
     88e:	ff 92       	push	r15
     890:	0f 93       	push	r16
     892:	1f 93       	push	r17
     894:	7b 01       	movw	r14, r22
     896:	8c 01       	movw	r16, r24
     898:	80 e0       	ldi	r24, 0x00	; 0
     89a:	e8 16       	cp	r14, r24
     89c:	80 e0       	ldi	r24, 0x00	; 0
     89e:	f8 06       	cpc	r15, r24
     8a0:	81 e0       	ldi	r24, 0x01	; 1
     8a2:	08 07       	cpc	r16, r24
     8a4:	80 e0       	ldi	r24, 0x00	; 0
     8a6:	18 07       	cpc	r17, r24
     8a8:	88 f4       	brcc	.+34     	; 0x8cc <__clzsi2+0x40>
     8aa:	8f ef       	ldi	r24, 0xFF	; 255
     8ac:	e8 16       	cp	r14, r24
     8ae:	f1 04       	cpc	r15, r1
     8b0:	01 05       	cpc	r16, r1
     8b2:	11 05       	cpc	r17, r1
     8b4:	31 f0       	breq	.+12     	; 0x8c2 <__clzsi2+0x36>
     8b6:	28 f0       	brcs	.+10     	; 0x8c2 <__clzsi2+0x36>
     8b8:	88 e0       	ldi	r24, 0x08	; 8
     8ba:	90 e0       	ldi	r25, 0x00	; 0
     8bc:	a0 e0       	ldi	r26, 0x00	; 0
     8be:	b0 e0       	ldi	r27, 0x00	; 0
     8c0:	17 c0       	rjmp	.+46     	; 0x8f0 <__clzsi2+0x64>
     8c2:	80 e0       	ldi	r24, 0x00	; 0
     8c4:	90 e0       	ldi	r25, 0x00	; 0
     8c6:	a0 e0       	ldi	r26, 0x00	; 0
     8c8:	b0 e0       	ldi	r27, 0x00	; 0
     8ca:	12 c0       	rjmp	.+36     	; 0x8f0 <__clzsi2+0x64>
     8cc:	80 e0       	ldi	r24, 0x00	; 0
     8ce:	e8 16       	cp	r14, r24
     8d0:	80 e0       	ldi	r24, 0x00	; 0
     8d2:	f8 06       	cpc	r15, r24
     8d4:	80 e0       	ldi	r24, 0x00	; 0
     8d6:	08 07       	cpc	r16, r24
     8d8:	81 e0       	ldi	r24, 0x01	; 1
     8da:	18 07       	cpc	r17, r24
     8dc:	28 f0       	brcs	.+10     	; 0x8e8 <__clzsi2+0x5c>
     8de:	88 e1       	ldi	r24, 0x18	; 24
     8e0:	90 e0       	ldi	r25, 0x00	; 0
     8e2:	a0 e0       	ldi	r26, 0x00	; 0
     8e4:	b0 e0       	ldi	r27, 0x00	; 0
     8e6:	04 c0       	rjmp	.+8      	; 0x8f0 <__clzsi2+0x64>
     8e8:	80 e1       	ldi	r24, 0x10	; 16
     8ea:	90 e0       	ldi	r25, 0x00	; 0
     8ec:	a0 e0       	ldi	r26, 0x00	; 0
     8ee:	b0 e0       	ldi	r27, 0x00	; 0
     8f0:	20 e2       	ldi	r18, 0x20	; 32
     8f2:	30 e0       	ldi	r19, 0x00	; 0
     8f4:	40 e0       	ldi	r20, 0x00	; 0
     8f6:	50 e0       	ldi	r21, 0x00	; 0
     8f8:	28 1b       	sub	r18, r24
     8fa:	39 0b       	sbc	r19, r25
     8fc:	4a 0b       	sbc	r20, r26
     8fe:	5b 0b       	sbc	r21, r27
     900:	04 c0       	rjmp	.+8      	; 0x90a <__clzsi2+0x7e>
     902:	16 95       	lsr	r17
     904:	07 95       	ror	r16
     906:	f7 94       	ror	r15
     908:	e7 94       	ror	r14
     90a:	8a 95       	dec	r24
     90c:	d2 f7       	brpl	.-12     	; 0x902 <__clzsi2+0x76>
     90e:	f7 01       	movw	r30, r14
     910:	e2 5e       	subi	r30, 0xE2	; 226
     912:	fe 4f       	sbci	r31, 0xFE	; 254
     914:	80 81       	ld	r24, Z
     916:	28 1b       	sub	r18, r24
     918:	31 09       	sbc	r19, r1
     91a:	41 09       	sbc	r20, r1
     91c:	51 09       	sbc	r21, r1
     91e:	c9 01       	movw	r24, r18
     920:	1f 91       	pop	r17
     922:	0f 91       	pop	r16
     924:	ff 90       	pop	r15
     926:	ef 90       	pop	r14
     928:	08 95       	ret

0000092a <__pack_f>:
     92a:	df 92       	push	r13
     92c:	ef 92       	push	r14
     92e:	ff 92       	push	r15
     930:	0f 93       	push	r16
     932:	1f 93       	push	r17
     934:	fc 01       	movw	r30, r24
     936:	e4 80       	ldd	r14, Z+4	; 0x04
     938:	f5 80       	ldd	r15, Z+5	; 0x05
     93a:	06 81       	ldd	r16, Z+6	; 0x06
     93c:	17 81       	ldd	r17, Z+7	; 0x07
     93e:	d1 80       	ldd	r13, Z+1	; 0x01
     940:	80 81       	ld	r24, Z
     942:	82 30       	cpi	r24, 0x02	; 2
     944:	48 f4       	brcc	.+18     	; 0x958 <__pack_f+0x2e>
     946:	80 e0       	ldi	r24, 0x00	; 0
     948:	90 e0       	ldi	r25, 0x00	; 0
     94a:	a0 e1       	ldi	r26, 0x10	; 16
     94c:	b0 e0       	ldi	r27, 0x00	; 0
     94e:	e8 2a       	or	r14, r24
     950:	f9 2a       	or	r15, r25
     952:	0a 2b       	or	r16, r26
     954:	1b 2b       	or	r17, r27
     956:	a5 c0       	rjmp	.+330    	; 0xaa2 <__pack_f+0x178>
     958:	84 30       	cpi	r24, 0x04	; 4
     95a:	09 f4       	brne	.+2      	; 0x95e <__pack_f+0x34>
     95c:	9f c0       	rjmp	.+318    	; 0xa9c <__pack_f+0x172>
     95e:	82 30       	cpi	r24, 0x02	; 2
     960:	21 f4       	brne	.+8      	; 0x96a <__pack_f+0x40>
     962:	ee 24       	eor	r14, r14
     964:	ff 24       	eor	r15, r15
     966:	87 01       	movw	r16, r14
     968:	05 c0       	rjmp	.+10     	; 0x974 <__pack_f+0x4a>
     96a:	e1 14       	cp	r14, r1
     96c:	f1 04       	cpc	r15, r1
     96e:	01 05       	cpc	r16, r1
     970:	11 05       	cpc	r17, r1
     972:	19 f4       	brne	.+6      	; 0x97a <__pack_f+0x50>
     974:	e0 e0       	ldi	r30, 0x00	; 0
     976:	f0 e0       	ldi	r31, 0x00	; 0
     978:	96 c0       	rjmp	.+300    	; 0xaa6 <__pack_f+0x17c>
     97a:	62 81       	ldd	r22, Z+2	; 0x02
     97c:	73 81       	ldd	r23, Z+3	; 0x03
     97e:	9f ef       	ldi	r25, 0xFF	; 255
     980:	62 38       	cpi	r22, 0x82	; 130
     982:	79 07       	cpc	r23, r25
     984:	0c f0       	brlt	.+2      	; 0x988 <__pack_f+0x5e>
     986:	5b c0       	rjmp	.+182    	; 0xa3e <__pack_f+0x114>
     988:	22 e8       	ldi	r18, 0x82	; 130
     98a:	3f ef       	ldi	r19, 0xFF	; 255
     98c:	26 1b       	sub	r18, r22
     98e:	37 0b       	sbc	r19, r23
     990:	2a 31       	cpi	r18, 0x1A	; 26
     992:	31 05       	cpc	r19, r1
     994:	2c f0       	brlt	.+10     	; 0x9a0 <__pack_f+0x76>
     996:	20 e0       	ldi	r18, 0x00	; 0
     998:	30 e0       	ldi	r19, 0x00	; 0
     99a:	40 e0       	ldi	r20, 0x00	; 0
     99c:	50 e0       	ldi	r21, 0x00	; 0
     99e:	2a c0       	rjmp	.+84     	; 0x9f4 <__pack_f+0xca>
     9a0:	b8 01       	movw	r22, r16
     9a2:	a7 01       	movw	r20, r14
     9a4:	02 2e       	mov	r0, r18
     9a6:	04 c0       	rjmp	.+8      	; 0x9b0 <__pack_f+0x86>
     9a8:	76 95       	lsr	r23
     9aa:	67 95       	ror	r22
     9ac:	57 95       	ror	r21
     9ae:	47 95       	ror	r20
     9b0:	0a 94       	dec	r0
     9b2:	d2 f7       	brpl	.-12     	; 0x9a8 <__pack_f+0x7e>
     9b4:	81 e0       	ldi	r24, 0x01	; 1
     9b6:	90 e0       	ldi	r25, 0x00	; 0
     9b8:	a0 e0       	ldi	r26, 0x00	; 0
     9ba:	b0 e0       	ldi	r27, 0x00	; 0
     9bc:	04 c0       	rjmp	.+8      	; 0x9c6 <__pack_f+0x9c>
     9be:	88 0f       	add	r24, r24
     9c0:	99 1f       	adc	r25, r25
     9c2:	aa 1f       	adc	r26, r26
     9c4:	bb 1f       	adc	r27, r27
     9c6:	2a 95       	dec	r18
     9c8:	d2 f7       	brpl	.-12     	; 0x9be <__pack_f+0x94>
     9ca:	01 97       	sbiw	r24, 0x01	; 1
     9cc:	a1 09       	sbc	r26, r1
     9ce:	b1 09       	sbc	r27, r1
     9d0:	8e 21       	and	r24, r14
     9d2:	9f 21       	and	r25, r15
     9d4:	a0 23       	and	r26, r16
     9d6:	b1 23       	and	r27, r17
     9d8:	00 97       	sbiw	r24, 0x00	; 0
     9da:	a1 05       	cpc	r26, r1
     9dc:	b1 05       	cpc	r27, r1
     9de:	21 f0       	breq	.+8      	; 0x9e8 <__pack_f+0xbe>
     9e0:	81 e0       	ldi	r24, 0x01	; 1
     9e2:	90 e0       	ldi	r25, 0x00	; 0
     9e4:	a0 e0       	ldi	r26, 0x00	; 0
     9e6:	b0 e0       	ldi	r27, 0x00	; 0
     9e8:	9a 01       	movw	r18, r20
     9ea:	ab 01       	movw	r20, r22
     9ec:	28 2b       	or	r18, r24
     9ee:	39 2b       	or	r19, r25
     9f0:	4a 2b       	or	r20, r26
     9f2:	5b 2b       	or	r21, r27
     9f4:	da 01       	movw	r26, r20
     9f6:	c9 01       	movw	r24, r18
     9f8:	8f 77       	andi	r24, 0x7F	; 127
     9fa:	90 70       	andi	r25, 0x00	; 0
     9fc:	a0 70       	andi	r26, 0x00	; 0
     9fe:	b0 70       	andi	r27, 0x00	; 0
     a00:	80 34       	cpi	r24, 0x40	; 64
     a02:	91 05       	cpc	r25, r1
     a04:	a1 05       	cpc	r26, r1
     a06:	b1 05       	cpc	r27, r1
     a08:	39 f4       	brne	.+14     	; 0xa18 <__pack_f+0xee>
     a0a:	27 ff       	sbrs	r18, 7
     a0c:	09 c0       	rjmp	.+18     	; 0xa20 <__pack_f+0xf6>
     a0e:	20 5c       	subi	r18, 0xC0	; 192
     a10:	3f 4f       	sbci	r19, 0xFF	; 255
     a12:	4f 4f       	sbci	r20, 0xFF	; 255
     a14:	5f 4f       	sbci	r21, 0xFF	; 255
     a16:	04 c0       	rjmp	.+8      	; 0xa20 <__pack_f+0xf6>
     a18:	21 5c       	subi	r18, 0xC1	; 193
     a1a:	3f 4f       	sbci	r19, 0xFF	; 255
     a1c:	4f 4f       	sbci	r20, 0xFF	; 255
     a1e:	5f 4f       	sbci	r21, 0xFF	; 255
     a20:	e0 e0       	ldi	r30, 0x00	; 0
     a22:	f0 e0       	ldi	r31, 0x00	; 0
     a24:	20 30       	cpi	r18, 0x00	; 0
     a26:	a0 e0       	ldi	r26, 0x00	; 0
     a28:	3a 07       	cpc	r19, r26
     a2a:	a0 e0       	ldi	r26, 0x00	; 0
     a2c:	4a 07       	cpc	r20, r26
     a2e:	a0 e4       	ldi	r26, 0x40	; 64
     a30:	5a 07       	cpc	r21, r26
     a32:	10 f0       	brcs	.+4      	; 0xa38 <__pack_f+0x10e>
     a34:	e1 e0       	ldi	r30, 0x01	; 1
     a36:	f0 e0       	ldi	r31, 0x00	; 0
     a38:	79 01       	movw	r14, r18
     a3a:	8a 01       	movw	r16, r20
     a3c:	27 c0       	rjmp	.+78     	; 0xa8c <__pack_f+0x162>
     a3e:	60 38       	cpi	r22, 0x80	; 128
     a40:	71 05       	cpc	r23, r1
     a42:	64 f5       	brge	.+88     	; 0xa9c <__pack_f+0x172>
     a44:	fb 01       	movw	r30, r22
     a46:	e1 58       	subi	r30, 0x81	; 129
     a48:	ff 4f       	sbci	r31, 0xFF	; 255
     a4a:	d8 01       	movw	r26, r16
     a4c:	c7 01       	movw	r24, r14
     a4e:	8f 77       	andi	r24, 0x7F	; 127
     a50:	90 70       	andi	r25, 0x00	; 0
     a52:	a0 70       	andi	r26, 0x00	; 0
     a54:	b0 70       	andi	r27, 0x00	; 0
     a56:	80 34       	cpi	r24, 0x40	; 64
     a58:	91 05       	cpc	r25, r1
     a5a:	a1 05       	cpc	r26, r1
     a5c:	b1 05       	cpc	r27, r1
     a5e:	39 f4       	brne	.+14     	; 0xa6e <__pack_f+0x144>
     a60:	e7 fe       	sbrs	r14, 7
     a62:	0d c0       	rjmp	.+26     	; 0xa7e <__pack_f+0x154>
     a64:	80 e4       	ldi	r24, 0x40	; 64
     a66:	90 e0       	ldi	r25, 0x00	; 0
     a68:	a0 e0       	ldi	r26, 0x00	; 0
     a6a:	b0 e0       	ldi	r27, 0x00	; 0
     a6c:	04 c0       	rjmp	.+8      	; 0xa76 <__pack_f+0x14c>
     a6e:	8f e3       	ldi	r24, 0x3F	; 63
     a70:	90 e0       	ldi	r25, 0x00	; 0
     a72:	a0 e0       	ldi	r26, 0x00	; 0
     a74:	b0 e0       	ldi	r27, 0x00	; 0
     a76:	e8 0e       	add	r14, r24
     a78:	f9 1e       	adc	r15, r25
     a7a:	0a 1f       	adc	r16, r26
     a7c:	1b 1f       	adc	r17, r27
     a7e:	17 ff       	sbrs	r17, 7
     a80:	05 c0       	rjmp	.+10     	; 0xa8c <__pack_f+0x162>
     a82:	16 95       	lsr	r17
     a84:	07 95       	ror	r16
     a86:	f7 94       	ror	r15
     a88:	e7 94       	ror	r14
     a8a:	31 96       	adiw	r30, 0x01	; 1
     a8c:	87 e0       	ldi	r24, 0x07	; 7
     a8e:	16 95       	lsr	r17
     a90:	07 95       	ror	r16
     a92:	f7 94       	ror	r15
     a94:	e7 94       	ror	r14
     a96:	8a 95       	dec	r24
     a98:	d1 f7       	brne	.-12     	; 0xa8e <__pack_f+0x164>
     a9a:	05 c0       	rjmp	.+10     	; 0xaa6 <__pack_f+0x17c>
     a9c:	ee 24       	eor	r14, r14
     a9e:	ff 24       	eor	r15, r15
     aa0:	87 01       	movw	r16, r14
     aa2:	ef ef       	ldi	r30, 0xFF	; 255
     aa4:	f0 e0       	ldi	r31, 0x00	; 0
     aa6:	6e 2f       	mov	r22, r30
     aa8:	67 95       	ror	r22
     aaa:	66 27       	eor	r22, r22
     aac:	67 95       	ror	r22
     aae:	90 2f       	mov	r25, r16
     ab0:	9f 77       	andi	r25, 0x7F	; 127
     ab2:	d7 94       	ror	r13
     ab4:	dd 24       	eor	r13, r13
     ab6:	d7 94       	ror	r13
     ab8:	8e 2f       	mov	r24, r30
     aba:	86 95       	lsr	r24
     abc:	49 2f       	mov	r20, r25
     abe:	46 2b       	or	r20, r22
     ac0:	58 2f       	mov	r21, r24
     ac2:	5d 29       	or	r21, r13
     ac4:	b7 01       	movw	r22, r14
     ac6:	ca 01       	movw	r24, r20
     ac8:	1f 91       	pop	r17
     aca:	0f 91       	pop	r16
     acc:	ff 90       	pop	r15
     ace:	ef 90       	pop	r14
     ad0:	df 90       	pop	r13
     ad2:	08 95       	ret

00000ad4 <__unpack_f>:
     ad4:	fc 01       	movw	r30, r24
     ad6:	db 01       	movw	r26, r22
     ad8:	40 81       	ld	r20, Z
     ada:	51 81       	ldd	r21, Z+1	; 0x01
     adc:	22 81       	ldd	r18, Z+2	; 0x02
     ade:	62 2f       	mov	r22, r18
     ae0:	6f 77       	andi	r22, 0x7F	; 127
     ae2:	70 e0       	ldi	r23, 0x00	; 0
     ae4:	22 1f       	adc	r18, r18
     ae6:	22 27       	eor	r18, r18
     ae8:	22 1f       	adc	r18, r18
     aea:	93 81       	ldd	r25, Z+3	; 0x03
     aec:	89 2f       	mov	r24, r25
     aee:	88 0f       	add	r24, r24
     af0:	82 2b       	or	r24, r18
     af2:	28 2f       	mov	r18, r24
     af4:	30 e0       	ldi	r19, 0x00	; 0
     af6:	99 1f       	adc	r25, r25
     af8:	99 27       	eor	r25, r25
     afa:	99 1f       	adc	r25, r25
     afc:	11 96       	adiw	r26, 0x01	; 1
     afe:	9c 93       	st	X, r25
     b00:	11 97       	sbiw	r26, 0x01	; 1
     b02:	21 15       	cp	r18, r1
     b04:	31 05       	cpc	r19, r1
     b06:	a9 f5       	brne	.+106    	; 0xb72 <__unpack_f+0x9e>
     b08:	41 15       	cp	r20, r1
     b0a:	51 05       	cpc	r21, r1
     b0c:	61 05       	cpc	r22, r1
     b0e:	71 05       	cpc	r23, r1
     b10:	11 f4       	brne	.+4      	; 0xb16 <__unpack_f+0x42>
     b12:	82 e0       	ldi	r24, 0x02	; 2
     b14:	37 c0       	rjmp	.+110    	; 0xb84 <__unpack_f+0xb0>
     b16:	82 e8       	ldi	r24, 0x82	; 130
     b18:	9f ef       	ldi	r25, 0xFF	; 255
     b1a:	13 96       	adiw	r26, 0x03	; 3
     b1c:	9c 93       	st	X, r25
     b1e:	8e 93       	st	-X, r24
     b20:	12 97       	sbiw	r26, 0x02	; 2
     b22:	9a 01       	movw	r18, r20
     b24:	ab 01       	movw	r20, r22
     b26:	67 e0       	ldi	r22, 0x07	; 7
     b28:	22 0f       	add	r18, r18
     b2a:	33 1f       	adc	r19, r19
     b2c:	44 1f       	adc	r20, r20
     b2e:	55 1f       	adc	r21, r21
     b30:	6a 95       	dec	r22
     b32:	d1 f7       	brne	.-12     	; 0xb28 <__unpack_f+0x54>
     b34:	83 e0       	ldi	r24, 0x03	; 3
     b36:	8c 93       	st	X, r24
     b38:	0d c0       	rjmp	.+26     	; 0xb54 <__unpack_f+0x80>
     b3a:	22 0f       	add	r18, r18
     b3c:	33 1f       	adc	r19, r19
     b3e:	44 1f       	adc	r20, r20
     b40:	55 1f       	adc	r21, r21
     b42:	12 96       	adiw	r26, 0x02	; 2
     b44:	8d 91       	ld	r24, X+
     b46:	9c 91       	ld	r25, X
     b48:	13 97       	sbiw	r26, 0x03	; 3
     b4a:	01 97       	sbiw	r24, 0x01	; 1
     b4c:	13 96       	adiw	r26, 0x03	; 3
     b4e:	9c 93       	st	X, r25
     b50:	8e 93       	st	-X, r24
     b52:	12 97       	sbiw	r26, 0x02	; 2
     b54:	20 30       	cpi	r18, 0x00	; 0
     b56:	80 e0       	ldi	r24, 0x00	; 0
     b58:	38 07       	cpc	r19, r24
     b5a:	80 e0       	ldi	r24, 0x00	; 0
     b5c:	48 07       	cpc	r20, r24
     b5e:	80 e4       	ldi	r24, 0x40	; 64
     b60:	58 07       	cpc	r21, r24
     b62:	58 f3       	brcs	.-42     	; 0xb3a <__unpack_f+0x66>
     b64:	14 96       	adiw	r26, 0x04	; 4
     b66:	2d 93       	st	X+, r18
     b68:	3d 93       	st	X+, r19
     b6a:	4d 93       	st	X+, r20
     b6c:	5c 93       	st	X, r21
     b6e:	17 97       	sbiw	r26, 0x07	; 7
     b70:	08 95       	ret
     b72:	2f 3f       	cpi	r18, 0xFF	; 255
     b74:	31 05       	cpc	r19, r1
     b76:	79 f4       	brne	.+30     	; 0xb96 <__unpack_f+0xc2>
     b78:	41 15       	cp	r20, r1
     b7a:	51 05       	cpc	r21, r1
     b7c:	61 05       	cpc	r22, r1
     b7e:	71 05       	cpc	r23, r1
     b80:	19 f4       	brne	.+6      	; 0xb88 <__unpack_f+0xb4>
     b82:	84 e0       	ldi	r24, 0x04	; 4
     b84:	8c 93       	st	X, r24
     b86:	08 95       	ret
     b88:	64 ff       	sbrs	r22, 4
     b8a:	03 c0       	rjmp	.+6      	; 0xb92 <__unpack_f+0xbe>
     b8c:	81 e0       	ldi	r24, 0x01	; 1
     b8e:	8c 93       	st	X, r24
     b90:	12 c0       	rjmp	.+36     	; 0xbb6 <__unpack_f+0xe2>
     b92:	1c 92       	st	X, r1
     b94:	10 c0       	rjmp	.+32     	; 0xbb6 <__unpack_f+0xe2>
     b96:	2f 57       	subi	r18, 0x7F	; 127
     b98:	30 40       	sbci	r19, 0x00	; 0
     b9a:	13 96       	adiw	r26, 0x03	; 3
     b9c:	3c 93       	st	X, r19
     b9e:	2e 93       	st	-X, r18
     ba0:	12 97       	sbiw	r26, 0x02	; 2
     ba2:	83 e0       	ldi	r24, 0x03	; 3
     ba4:	8c 93       	st	X, r24
     ba6:	87 e0       	ldi	r24, 0x07	; 7
     ba8:	44 0f       	add	r20, r20
     baa:	55 1f       	adc	r21, r21
     bac:	66 1f       	adc	r22, r22
     bae:	77 1f       	adc	r23, r23
     bb0:	8a 95       	dec	r24
     bb2:	d1 f7       	brne	.-12     	; 0xba8 <__unpack_f+0xd4>
     bb4:	70 64       	ori	r23, 0x40	; 64
     bb6:	14 96       	adiw	r26, 0x04	; 4
     bb8:	4d 93       	st	X+, r20
     bba:	5d 93       	st	X+, r21
     bbc:	6d 93       	st	X+, r22
     bbe:	7c 93       	st	X, r23
     bc0:	17 97       	sbiw	r26, 0x07	; 7
     bc2:	08 95       	ret

00000bc4 <__fpcmp_parts_f>:
     bc4:	1f 93       	push	r17
     bc6:	dc 01       	movw	r26, r24
     bc8:	fb 01       	movw	r30, r22
     bca:	9c 91       	ld	r25, X
     bcc:	92 30       	cpi	r25, 0x02	; 2
     bce:	08 f4       	brcc	.+2      	; 0xbd2 <__fpcmp_parts_f+0xe>
     bd0:	47 c0       	rjmp	.+142    	; 0xc60 <__fpcmp_parts_f+0x9c>
     bd2:	80 81       	ld	r24, Z
     bd4:	82 30       	cpi	r24, 0x02	; 2
     bd6:	08 f4       	brcc	.+2      	; 0xbda <__fpcmp_parts_f+0x16>
     bd8:	43 c0       	rjmp	.+134    	; 0xc60 <__fpcmp_parts_f+0x9c>
     bda:	94 30       	cpi	r25, 0x04	; 4
     bdc:	51 f4       	brne	.+20     	; 0xbf2 <__fpcmp_parts_f+0x2e>
     bde:	11 96       	adiw	r26, 0x01	; 1
     be0:	1c 91       	ld	r17, X
     be2:	84 30       	cpi	r24, 0x04	; 4
     be4:	99 f5       	brne	.+102    	; 0xc4c <__fpcmp_parts_f+0x88>
     be6:	81 81       	ldd	r24, Z+1	; 0x01
     be8:	68 2f       	mov	r22, r24
     bea:	70 e0       	ldi	r23, 0x00	; 0
     bec:	61 1b       	sub	r22, r17
     bee:	71 09       	sbc	r23, r1
     bf0:	3f c0       	rjmp	.+126    	; 0xc70 <__fpcmp_parts_f+0xac>
     bf2:	84 30       	cpi	r24, 0x04	; 4
     bf4:	21 f0       	breq	.+8      	; 0xbfe <__fpcmp_parts_f+0x3a>
     bf6:	92 30       	cpi	r25, 0x02	; 2
     bf8:	31 f4       	brne	.+12     	; 0xc06 <__fpcmp_parts_f+0x42>
     bfa:	82 30       	cpi	r24, 0x02	; 2
     bfc:	b9 f1       	breq	.+110    	; 0xc6c <__fpcmp_parts_f+0xa8>
     bfe:	81 81       	ldd	r24, Z+1	; 0x01
     c00:	88 23       	and	r24, r24
     c02:	89 f1       	breq	.+98     	; 0xc66 <__fpcmp_parts_f+0xa2>
     c04:	2d c0       	rjmp	.+90     	; 0xc60 <__fpcmp_parts_f+0x9c>
     c06:	11 96       	adiw	r26, 0x01	; 1
     c08:	1c 91       	ld	r17, X
     c0a:	11 97       	sbiw	r26, 0x01	; 1
     c0c:	82 30       	cpi	r24, 0x02	; 2
     c0e:	f1 f0       	breq	.+60     	; 0xc4c <__fpcmp_parts_f+0x88>
     c10:	81 81       	ldd	r24, Z+1	; 0x01
     c12:	18 17       	cp	r17, r24
     c14:	d9 f4       	brne	.+54     	; 0xc4c <__fpcmp_parts_f+0x88>
     c16:	12 96       	adiw	r26, 0x02	; 2
     c18:	2d 91       	ld	r18, X+
     c1a:	3c 91       	ld	r19, X
     c1c:	13 97       	sbiw	r26, 0x03	; 3
     c1e:	82 81       	ldd	r24, Z+2	; 0x02
     c20:	93 81       	ldd	r25, Z+3	; 0x03
     c22:	82 17       	cp	r24, r18
     c24:	93 07       	cpc	r25, r19
     c26:	94 f0       	brlt	.+36     	; 0xc4c <__fpcmp_parts_f+0x88>
     c28:	28 17       	cp	r18, r24
     c2a:	39 07       	cpc	r19, r25
     c2c:	bc f0       	brlt	.+46     	; 0xc5c <__fpcmp_parts_f+0x98>
     c2e:	14 96       	adiw	r26, 0x04	; 4
     c30:	8d 91       	ld	r24, X+
     c32:	9d 91       	ld	r25, X+
     c34:	0d 90       	ld	r0, X+
     c36:	bc 91       	ld	r27, X
     c38:	a0 2d       	mov	r26, r0
     c3a:	24 81       	ldd	r18, Z+4	; 0x04
     c3c:	35 81       	ldd	r19, Z+5	; 0x05
     c3e:	46 81       	ldd	r20, Z+6	; 0x06
     c40:	57 81       	ldd	r21, Z+7	; 0x07
     c42:	28 17       	cp	r18, r24
     c44:	39 07       	cpc	r19, r25
     c46:	4a 07       	cpc	r20, r26
     c48:	5b 07       	cpc	r21, r27
     c4a:	18 f4       	brcc	.+6      	; 0xc52 <__fpcmp_parts_f+0x8e>
     c4c:	11 23       	and	r17, r17
     c4e:	41 f0       	breq	.+16     	; 0xc60 <__fpcmp_parts_f+0x9c>
     c50:	0a c0       	rjmp	.+20     	; 0xc66 <__fpcmp_parts_f+0xa2>
     c52:	82 17       	cp	r24, r18
     c54:	93 07       	cpc	r25, r19
     c56:	a4 07       	cpc	r26, r20
     c58:	b5 07       	cpc	r27, r21
     c5a:	40 f4       	brcc	.+16     	; 0xc6c <__fpcmp_parts_f+0xa8>
     c5c:	11 23       	and	r17, r17
     c5e:	19 f0       	breq	.+6      	; 0xc66 <__fpcmp_parts_f+0xa2>
     c60:	61 e0       	ldi	r22, 0x01	; 1
     c62:	70 e0       	ldi	r23, 0x00	; 0
     c64:	05 c0       	rjmp	.+10     	; 0xc70 <__fpcmp_parts_f+0xac>
     c66:	6f ef       	ldi	r22, 0xFF	; 255
     c68:	7f ef       	ldi	r23, 0xFF	; 255
     c6a:	02 c0       	rjmp	.+4      	; 0xc70 <__fpcmp_parts_f+0xac>
     c6c:	60 e0       	ldi	r22, 0x00	; 0
     c6e:	70 e0       	ldi	r23, 0x00	; 0
     c70:	cb 01       	movw	r24, r22
     c72:	1f 91       	pop	r17
     c74:	08 95       	ret

00000c76 <TIMER1_voidInit>:
     c76:	8f b5       	in	r24, 0x2f	; 47
     c78:	8e 7f       	andi	r24, 0xFE	; 254
     c7a:	8f bd       	out	0x2f, r24	; 47
     c7c:	8f b5       	in	r24, 0x2f	; 47
     c7e:	8d 7f       	andi	r24, 0xFD	; 253
     c80:	8f bd       	out	0x2f, r24	; 47
     c82:	8e b5       	in	r24, 0x2e	; 46
     c84:	88 60       	ori	r24, 0x08	; 8
     c86:	8e bd       	out	0x2e, r24	; 46
     c88:	8e b5       	in	r24, 0x2e	; 46
     c8a:	8f 7e       	andi	r24, 0xEF	; 239
     c8c:	8e bd       	out	0x2e, r24	; 46
     c8e:	8f b5       	in	r24, 0x2f	; 47
     c90:	8f 7b       	andi	r24, 0xBF	; 191
     c92:	8f bd       	out	0x2f, r24	; 47
     c94:	8f b5       	in	r24, 0x2f	; 47
     c96:	80 68       	ori	r24, 0x80	; 128
     c98:	8f bd       	out	0x2f, r24	; 47
     c9a:	89 b7       	in	r24, 0x39	; 57
     c9c:	80 61       	ori	r24, 0x10	; 16
     c9e:	89 bf       	out	0x39, r24	; 57
     ca0:	8f b7       	in	r24, 0x3f	; 63
     ca2:	80 68       	ori	r24, 0x80	; 128
     ca4:	8f bf       	out	0x3f, r24	; 63
     ca6:	08 95       	ret

00000ca8 <TIMER1_voidSetTime>:
     ca8:	af 92       	push	r10
     caa:	bf 92       	push	r11
     cac:	cf 92       	push	r12
     cae:	df 92       	push	r13
     cb0:	ef 92       	push	r14
     cb2:	ff 92       	push	r15
     cb4:	0f 93       	push	r16
     cb6:	1f 93       	push	r17
     cb8:	cf 93       	push	r28
     cba:	df 93       	push	r29
     cbc:	28 ee       	ldi	r18, 0xE8	; 232
     cbe:	33 e0       	ldi	r19, 0x03	; 3
     cc0:	40 e0       	ldi	r20, 0x00	; 0
     cc2:	50 e0       	ldi	r21, 0x00	; 0
     cc4:	0e 94 cb 12 	call	0x2596	; 0x2596 <__mulsi3>
     cc8:	7b 01       	movw	r14, r22
     cca:	8c 01       	movw	r16, r24
     ccc:	82 e0       	ldi	r24, 0x02	; 2
     cce:	16 95       	lsr	r17
     cd0:	07 95       	ror	r16
     cd2:	f7 94       	ror	r15
     cd4:	e7 94       	ror	r14
     cd6:	8a 95       	dec	r24
     cd8:	d1 f7       	brne	.-12     	; 0xcce <TIMER1_voidSetTime+0x26>
     cda:	e0 92 44 02 	sts	0x0244, r14
     cde:	f0 92 45 02 	sts	0x0245, r15
     ce2:	00 93 46 02 	sts	0x0246, r16
     ce6:	10 93 47 02 	sts	0x0247, r17
     cea:	cf ef       	ldi	r28, 0xFF	; 255
     cec:	df ef       	ldi	r29, 0xFF	; 255
     cee:	5e 01       	movw	r10, r28
     cf0:	cc 24       	eor	r12, r12
     cf2:	dd 24       	eor	r13, r13
     cf4:	c8 01       	movw	r24, r16
     cf6:	b7 01       	movw	r22, r14
     cf8:	a6 01       	movw	r20, r12
     cfa:	95 01       	movw	r18, r10
     cfc:	0e 94 fe 12 	call	0x25fc	; 0x25fc <__udivmodsi4>
     d00:	21 97       	sbiw	r28, 0x01	; 1
     d02:	61 15       	cp	r22, r1
     d04:	71 05       	cpc	r23, r1
     d06:	81 05       	cpc	r24, r1
     d08:	91 05       	cpc	r25, r1
     d0a:	89 f7       	brne	.-30     	; 0xcee <TIMER1_voidSetTime+0x46>
     d0c:	c8 01       	movw	r24, r16
     d0e:	b7 01       	movw	r22, r14
     d10:	a6 01       	movw	r20, r12
     d12:	95 01       	movw	r18, r10
     d14:	0e 94 fe 12 	call	0x25fc	; 0x25fc <__udivmodsi4>
     d18:	20 93 3c 02 	sts	0x023C, r18
     d1c:	30 93 3d 02 	sts	0x023D, r19
     d20:	40 93 3e 02 	sts	0x023E, r20
     d24:	50 93 3f 02 	sts	0x023F, r21
     d28:	db bd       	out	0x2b, r29	; 43
     d2a:	ca bd       	out	0x2a, r28	; 42
     d2c:	df 91       	pop	r29
     d2e:	cf 91       	pop	r28
     d30:	1f 91       	pop	r17
     d32:	0f 91       	pop	r16
     d34:	ff 90       	pop	r15
     d36:	ef 90       	pop	r14
     d38:	df 90       	pop	r13
     d3a:	cf 90       	pop	r12
     d3c:	bf 90       	pop	r11
     d3e:	af 90       	pop	r10
     d40:	08 95       	ret

00000d42 <TIMER1_voidStart>:
     d42:	8e b5       	in	r24, 0x2e	; 46
     d44:	81 60       	ori	r24, 0x01	; 1
     d46:	8e bd       	out	0x2e, r24	; 46
     d48:	8e b5       	in	r24, 0x2e	; 46
     d4a:	8d 7f       	andi	r24, 0xFD	; 253
     d4c:	8e bd       	out	0x2e, r24	; 46
     d4e:	8e b5       	in	r24, 0x2e	; 46
     d50:	84 60       	ori	r24, 0x04	; 4
     d52:	8e bd       	out	0x2e, r24	; 46
     d54:	08 95       	ret

00000d56 <TIMER1_voidStop>:
     d56:	8e b5       	in	r24, 0x2e	; 46
     d58:	8e 7f       	andi	r24, 0xFE	; 254
     d5a:	8e bd       	out	0x2e, r24	; 46
     d5c:	8e b5       	in	r24, 0x2e	; 46
     d5e:	8d 7f       	andi	r24, 0xFD	; 253
     d60:	8e bd       	out	0x2e, r24	; 46
     d62:	8e b5       	in	r24, 0x2e	; 46
     d64:	8b 7f       	andi	r24, 0xFB	; 251
     d66:	8e bd       	out	0x2e, r24	; 46
     d68:	08 95       	ret

00000d6a <PWM1_voidInit>:
     d6a:	8f b5       	in	r24, 0x2f	; 47
     d6c:	8e 7f       	andi	r24, 0xFE	; 254
     d6e:	8f bd       	out	0x2f, r24	; 47
     d70:	8f b5       	in	r24, 0x2f	; 47
     d72:	82 60       	ori	r24, 0x02	; 2
     d74:	8f bd       	out	0x2f, r24	; 47
     d76:	8e b5       	in	r24, 0x2e	; 46
     d78:	82 60       	ori	r24, 0x02	; 2
     d7a:	8e bd       	out	0x2e, r24	; 46
     d7c:	8e b5       	in	r24, 0x2e	; 46
     d7e:	82 60       	ori	r24, 0x02	; 2
     d80:	8e bd       	out	0x2e, r24	; 46
     d82:	8f b5       	in	r24, 0x2f	; 47
     d84:	8f 7b       	andi	r24, 0xBF	; 191
     d86:	8f bd       	out	0x2f, r24	; 47
     d88:	8f b5       	in	r24, 0x2f	; 47
     d8a:	80 68       	ori	r24, 0x80	; 128
     d8c:	8f bd       	out	0x2f, r24	; 47
     d8e:	08 95       	ret

00000d90 <PWM1_voidSetDutyCycle>:
     d90:	28 e3       	ldi	r18, 0x38	; 56
     d92:	31 e0       	ldi	r19, 0x01	; 1
     d94:	40 e0       	ldi	r20, 0x00	; 0
     d96:	50 e0       	ldi	r21, 0x00	; 0
     d98:	0e 94 cb 12 	call	0x2596	; 0x2596 <__mulsi3>
     d9c:	24 e6       	ldi	r18, 0x64	; 100
     d9e:	30 e0       	ldi	r19, 0x00	; 0
     da0:	40 e0       	ldi	r20, 0x00	; 0
     da2:	50 e0       	ldi	r21, 0x00	; 0
     da4:	0e 94 fe 12 	call	0x25fc	; 0x25fc <__udivmodsi4>
     da8:	21 50       	subi	r18, 0x01	; 1
     daa:	30 40       	sbci	r19, 0x00	; 0
     dac:	3b bd       	out	0x2b, r19	; 43
     dae:	2a bd       	out	0x2a, r18	; 42
     db0:	08 95       	ret

00000db2 <PWM1_voidSetFrequency>:
     db2:	20 e9       	ldi	r18, 0x90	; 144
     db4:	30 ed       	ldi	r19, 0xD0	; 208
     db6:	43 e0       	ldi	r20, 0x03	; 3
     db8:	50 e0       	ldi	r21, 0x00	; 0
     dba:	0e 94 cb 12 	call	0x2596	; 0x2596 <__mulsi3>
     dbe:	77 bd       	out	0x27, r23	; 39
     dc0:	66 bd       	out	0x26, r22	; 38
     dc2:	08 95       	ret

00000dc4 <PWM1_voidStart>:
     dc4:	8e b5       	in	r24, 0x2e	; 46
     dc6:	81 60       	ori	r24, 0x01	; 1
     dc8:	8e bd       	out	0x2e, r24	; 46
     dca:	8e b5       	in	r24, 0x2e	; 46
     dcc:	8d 7f       	andi	r24, 0xFD	; 253
     dce:	8e bd       	out	0x2e, r24	; 46
     dd0:	8e b5       	in	r24, 0x2e	; 46
     dd2:	84 60       	ori	r24, 0x04	; 4
     dd4:	8e bd       	out	0x2e, r24	; 46
     dd6:	08 95       	ret

00000dd8 <PWM1_voidStop>:
     dd8:	8e b5       	in	r24, 0x2e	; 46
     dda:	8e 7f       	andi	r24, 0xFE	; 254
     ddc:	8e bd       	out	0x2e, r24	; 46
     dde:	8e b5       	in	r24, 0x2e	; 46
     de0:	8d 7f       	andi	r24, 0xFD	; 253
     de2:	8e bd       	out	0x2e, r24	; 46
     de4:	8e b5       	in	r24, 0x2e	; 46
     de6:	8b 7f       	andi	r24, 0xFB	; 251
     de8:	8e bd       	out	0x2e, r24	; 46
     dea:	08 95       	ret

00000dec <TIMER1_voidSetCallBack>:
     dec:	90 93 64 02 	sts	0x0264, r25
     df0:	80 93 63 02 	sts	0x0263, r24
     df4:	08 95       	ret

00000df6 <__vector_7>:
     df6:	1f 92       	push	r1
     df8:	0f 92       	push	r0
     dfa:	0f b6       	in	r0, 0x3f	; 63
     dfc:	0f 92       	push	r0
     dfe:	11 24       	eor	r1, r1
     e00:	2f 93       	push	r18
     e02:	3f 93       	push	r19
     e04:	4f 93       	push	r20
     e06:	5f 93       	push	r21
     e08:	6f 93       	push	r22
     e0a:	7f 93       	push	r23
     e0c:	8f 93       	push	r24
     e0e:	9f 93       	push	r25
     e10:	af 93       	push	r26
     e12:	bf 93       	push	r27
     e14:	ef 93       	push	r30
     e16:	ff 93       	push	r31
     e18:	80 91 40 02 	lds	r24, 0x0240
     e1c:	90 91 41 02 	lds	r25, 0x0241
     e20:	a0 91 42 02 	lds	r26, 0x0242
     e24:	b0 91 43 02 	lds	r27, 0x0243
     e28:	01 96       	adiw	r24, 0x01	; 1
     e2a:	a1 1d       	adc	r26, r1
     e2c:	b1 1d       	adc	r27, r1
     e2e:	80 93 40 02 	sts	0x0240, r24
     e32:	90 93 41 02 	sts	0x0241, r25
     e36:	a0 93 42 02 	sts	0x0242, r26
     e3a:	b0 93 43 02 	sts	0x0243, r27
     e3e:	20 91 3c 02 	lds	r18, 0x023C
     e42:	30 91 3d 02 	lds	r19, 0x023D
     e46:	40 91 3e 02 	lds	r20, 0x023E
     e4a:	50 91 3f 02 	lds	r21, 0x023F
     e4e:	82 17       	cp	r24, r18
     e50:	93 07       	cpc	r25, r19
     e52:	a4 07       	cpc	r26, r20
     e54:	b5 07       	cpc	r27, r21
     e56:	69 f4       	brne	.+26     	; 0xe72 <__vector_7+0x7c>
     e58:	e0 91 63 02 	lds	r30, 0x0263
     e5c:	f0 91 64 02 	lds	r31, 0x0264
     e60:	09 95       	icall
     e62:	10 92 40 02 	sts	0x0240, r1
     e66:	10 92 41 02 	sts	0x0241, r1
     e6a:	10 92 42 02 	sts	0x0242, r1
     e6e:	10 92 43 02 	sts	0x0243, r1
     e72:	ff 91       	pop	r31
     e74:	ef 91       	pop	r30
     e76:	bf 91       	pop	r27
     e78:	af 91       	pop	r26
     e7a:	9f 91       	pop	r25
     e7c:	8f 91       	pop	r24
     e7e:	7f 91       	pop	r23
     e80:	6f 91       	pop	r22
     e82:	5f 91       	pop	r21
     e84:	4f 91       	pop	r20
     e86:	3f 91       	pop	r19
     e88:	2f 91       	pop	r18
     e8a:	0f 90       	pop	r0
     e8c:	0f be       	out	0x3f, r0	; 63
     e8e:	0f 90       	pop	r0
     e90:	1f 90       	pop	r1
     e92:	18 95       	reti

00000e94 <TIMER0_voidInit>:
     e94:	83 b7       	in	r24, 0x33	; 51
     e96:	8f 7b       	andi	r24, 0xBF	; 191
     e98:	83 bf       	out	0x33, r24	; 51
     e9a:	83 b7       	in	r24, 0x33	; 51
     e9c:	87 7f       	andi	r24, 0xF7	; 247
     e9e:	83 bf       	out	0x33, r24	; 51
     ea0:	89 b7       	in	r24, 0x39	; 57
     ea2:	81 60       	ori	r24, 0x01	; 1
     ea4:	89 bf       	out	0x39, r24	; 57
     ea6:	8f b7       	in	r24, 0x3f	; 63
     ea8:	80 68       	ori	r24, 0x80	; 128
     eaa:	8f bf       	out	0x3f, r24	; 63
     eac:	08 95       	ret

00000eae <TIMER0_voidSetTime>:
     eae:	28 ee       	ldi	r18, 0xE8	; 232
     eb0:	33 e0       	ldi	r19, 0x03	; 3
     eb2:	40 e0       	ldi	r20, 0x00	; 0
     eb4:	50 e0       	ldi	r21, 0x00	; 0
     eb6:	0e 94 cb 12 	call	0x2596	; 0x2596 <__mulsi3>
     eba:	36 e0       	ldi	r19, 0x06	; 6
     ebc:	96 95       	lsr	r25
     ebe:	87 95       	ror	r24
     ec0:	77 95       	ror	r23
     ec2:	67 95       	ror	r22
     ec4:	3a 95       	dec	r19
     ec6:	d1 f7       	brne	.-12     	; 0xebc <TIMER0_voidSetTime+0xe>
     ec8:	60 93 50 02 	sts	0x0250, r22
     ecc:	70 93 51 02 	sts	0x0251, r23
     ed0:	80 93 52 02 	sts	0x0252, r24
     ed4:	90 93 53 02 	sts	0x0253, r25
     ed8:	27 2f       	mov	r18, r23
     eda:	38 2f       	mov	r19, r24
     edc:	49 2f       	mov	r20, r25
     ede:	55 27       	eor	r21, r21
     ee0:	20 93 4c 02 	sts	0x024C, r18
     ee4:	30 93 4d 02 	sts	0x024D, r19
     ee8:	40 93 4e 02 	sts	0x024E, r20
     eec:	50 93 4f 02 	sts	0x024F, r21
     ef0:	66 23       	and	r22, r22
     ef2:	79 f0       	breq	.+30     	; 0xf12 <TIMER0_voidSetTime+0x64>
     ef4:	86 2f       	mov	r24, r22
     ef6:	81 95       	neg	r24
     ef8:	82 bf       	out	0x32, r24	; 50
     efa:	2f 5f       	subi	r18, 0xFF	; 255
     efc:	3f 4f       	sbci	r19, 0xFF	; 255
     efe:	4f 4f       	sbci	r20, 0xFF	; 255
     f00:	5f 4f       	sbci	r21, 0xFF	; 255
     f02:	20 93 4c 02 	sts	0x024C, r18
     f06:	30 93 4d 02 	sts	0x024D, r19
     f0a:	40 93 4e 02 	sts	0x024E, r20
     f0e:	50 93 4f 02 	sts	0x024F, r21
     f12:	08 95       	ret

00000f14 <TIMER0_voidStart>:
     f14:	83 b7       	in	r24, 0x33	; 51
     f16:	81 60       	ori	r24, 0x01	; 1
     f18:	83 bf       	out	0x33, r24	; 51
     f1a:	83 b7       	in	r24, 0x33	; 51
     f1c:	8d 7f       	andi	r24, 0xFD	; 253
     f1e:	83 bf       	out	0x33, r24	; 51
     f20:	83 b7       	in	r24, 0x33	; 51
     f22:	84 60       	ori	r24, 0x04	; 4
     f24:	83 bf       	out	0x33, r24	; 51
     f26:	08 95       	ret

00000f28 <TIMER0_voidStop>:
     f28:	83 b7       	in	r24, 0x33	; 51
     f2a:	8e 7f       	andi	r24, 0xFE	; 254
     f2c:	83 bf       	out	0x33, r24	; 51
     f2e:	83 b7       	in	r24, 0x33	; 51
     f30:	8d 7f       	andi	r24, 0xFD	; 253
     f32:	83 bf       	out	0x33, r24	; 51
     f34:	83 b7       	in	r24, 0x33	; 51
     f36:	8b 7f       	andi	r24, 0xFB	; 251
     f38:	83 bf       	out	0x33, r24	; 51
     f3a:	08 95       	ret

00000f3c <PWM0_voidInit>:
     f3c:	83 b7       	in	r24, 0x33	; 51
     f3e:	80 64       	ori	r24, 0x40	; 64
     f40:	83 bf       	out	0x33, r24	; 51
     f42:	83 b7       	in	r24, 0x33	; 51
     f44:	87 7f       	andi	r24, 0xF7	; 247
     f46:	83 bf       	out	0x33, r24	; 51
     f48:	83 b7       	in	r24, 0x33	; 51
     f4a:	8f 7e       	andi	r24, 0xEF	; 239
     f4c:	83 bf       	out	0x33, r24	; 51
     f4e:	83 b7       	in	r24, 0x33	; 51
     f50:	80 62       	ori	r24, 0x20	; 32
     f52:	83 bf       	out	0x33, r24	; 51
     f54:	08 95       	ret

00000f56 <PWM0_voidSetDutyCycle>:
     f56:	2f ef       	ldi	r18, 0xFF	; 255
     f58:	30 e0       	ldi	r19, 0x00	; 0
     f5a:	40 e0       	ldi	r20, 0x00	; 0
     f5c:	50 e0       	ldi	r21, 0x00	; 0
     f5e:	0e 94 cb 12 	call	0x2596	; 0x2596 <__mulsi3>
     f62:	24 e6       	ldi	r18, 0x64	; 100
     f64:	30 e0       	ldi	r19, 0x00	; 0
     f66:	40 e0       	ldi	r20, 0x00	; 0
     f68:	50 e0       	ldi	r21, 0x00	; 0
     f6a:	0e 94 fe 12 	call	0x25fc	; 0x25fc <__udivmodsi4>
     f6e:	2c bf       	out	0x3c, r18	; 60
     f70:	08 95       	ret

00000f72 <PWM0_voidStart>:
     f72:	0e 94 8a 07 	call	0xf14	; 0xf14 <TIMER0_voidStart>
     f76:	08 95       	ret

00000f78 <PWM0_voidStop>:
     f78:	0e 94 94 07 	call	0xf28	; 0xf28 <TIMER0_voidStop>
     f7c:	08 95       	ret

00000f7e <TIMER0_voidSetCallBack>:
     f7e:	90 93 68 02 	sts	0x0268, r25
     f82:	80 93 67 02 	sts	0x0267, r24
     f86:	08 95       	ret

00000f88 <TIMER0_voidSetCallBack_2>:
     f88:	90 93 6a 02 	sts	0x026A, r25
     f8c:	80 93 69 02 	sts	0x0269, r24
     f90:	70 93 66 02 	sts	0x0266, r23
     f94:	60 93 65 02 	sts	0x0265, r22
     f98:	08 95       	ret

00000f9a <__vector_10>:
     f9a:	1f 92       	push	r1
     f9c:	0f 92       	push	r0
     f9e:	0f b6       	in	r0, 0x3f	; 63
     fa0:	0f 92       	push	r0
     fa2:	11 24       	eor	r1, r1
     fa4:	2f 93       	push	r18
     fa6:	3f 93       	push	r19
     fa8:	4f 93       	push	r20
     faa:	5f 93       	push	r21
     fac:	6f 93       	push	r22
     fae:	7f 93       	push	r23
     fb0:	8f 93       	push	r24
     fb2:	9f 93       	push	r25
     fb4:	af 93       	push	r26
     fb6:	bf 93       	push	r27
     fb8:	ef 93       	push	r30
     fba:	ff 93       	push	r31
     fbc:	80 91 58 02 	lds	r24, 0x0258
     fc0:	90 91 59 02 	lds	r25, 0x0259
     fc4:	a0 91 5a 02 	lds	r26, 0x025A
     fc8:	b0 91 5b 02 	lds	r27, 0x025B
     fcc:	01 96       	adiw	r24, 0x01	; 1
     fce:	a1 1d       	adc	r26, r1
     fd0:	b1 1d       	adc	r27, r1
     fd2:	80 93 58 02 	sts	0x0258, r24
     fd6:	90 93 59 02 	sts	0x0259, r25
     fda:	a0 93 5a 02 	sts	0x025A, r26
     fde:	b0 93 5b 02 	sts	0x025B, r27
     fe2:	20 91 48 02 	lds	r18, 0x0248
     fe6:	30 91 49 02 	lds	r19, 0x0249
     fea:	40 91 4a 02 	lds	r20, 0x024A
     fee:	50 91 4b 02 	lds	r21, 0x024B
     ff2:	82 17       	cp	r24, r18
     ff4:	93 07       	cpc	r25, r19
     ff6:	a4 07       	cpc	r26, r20
     ff8:	b5 07       	cpc	r27, r21
     ffa:	69 f4       	brne	.+26     	; 0x1016 <__vector_10+0x7c>
     ffc:	e0 91 67 02 	lds	r30, 0x0267
    1000:	f0 91 68 02 	lds	r31, 0x0268
    1004:	09 95       	icall
    1006:	10 92 58 02 	sts	0x0258, r1
    100a:	10 92 59 02 	sts	0x0259, r1
    100e:	10 92 5a 02 	sts	0x025A, r1
    1012:	10 92 5b 02 	sts	0x025B, r1
    1016:	ff 91       	pop	r31
    1018:	ef 91       	pop	r30
    101a:	bf 91       	pop	r27
    101c:	af 91       	pop	r26
    101e:	9f 91       	pop	r25
    1020:	8f 91       	pop	r24
    1022:	7f 91       	pop	r23
    1024:	6f 91       	pop	r22
    1026:	5f 91       	pop	r21
    1028:	4f 91       	pop	r20
    102a:	3f 91       	pop	r19
    102c:	2f 91       	pop	r18
    102e:	0f 90       	pop	r0
    1030:	0f be       	out	0x3f, r0	; 63
    1032:	0f 90       	pop	r0
    1034:	1f 90       	pop	r1
    1036:	18 95       	reti

00001038 <__vector_11>:
    1038:	1f 92       	push	r1
    103a:	0f 92       	push	r0
    103c:	0f b6       	in	r0, 0x3f	; 63
    103e:	0f 92       	push	r0
    1040:	11 24       	eor	r1, r1
    1042:	2f 93       	push	r18
    1044:	3f 93       	push	r19
    1046:	4f 93       	push	r20
    1048:	5f 93       	push	r21
    104a:	6f 93       	push	r22
    104c:	7f 93       	push	r23
    104e:	8f 93       	push	r24
    1050:	9f 93       	push	r25
    1052:	af 93       	push	r26
    1054:	bf 93       	push	r27
    1056:	ef 93       	push	r30
    1058:	ff 93       	push	r31
    105a:	80 91 54 02 	lds	r24, 0x0254
    105e:	90 91 55 02 	lds	r25, 0x0255
    1062:	a0 91 56 02 	lds	r26, 0x0256
    1066:	b0 91 57 02 	lds	r27, 0x0257
    106a:	01 96       	adiw	r24, 0x01	; 1
    106c:	a1 1d       	adc	r26, r1
    106e:	b1 1d       	adc	r27, r1
    1070:	80 93 54 02 	sts	0x0254, r24
    1074:	90 93 55 02 	sts	0x0255, r25
    1078:	a0 93 56 02 	sts	0x0256, r26
    107c:	b0 93 57 02 	sts	0x0257, r27
    1080:	20 91 4c 02 	lds	r18, 0x024C
    1084:	30 91 4d 02 	lds	r19, 0x024D
    1088:	40 91 4e 02 	lds	r20, 0x024E
    108c:	50 91 4f 02 	lds	r21, 0x024F
    1090:	82 17       	cp	r24, r18
    1092:	93 07       	cpc	r25, r19
    1094:	a4 07       	cpc	r26, r20
    1096:	b5 07       	cpc	r27, r21
    1098:	89 f4       	brne	.+34     	; 0x10bc <__vector_11+0x84>
    109a:	e0 91 67 02 	lds	r30, 0x0267
    109e:	f0 91 68 02 	lds	r31, 0x0268
    10a2:	09 95       	icall
    10a4:	10 92 54 02 	sts	0x0254, r1
    10a8:	10 92 55 02 	sts	0x0255, r1
    10ac:	10 92 56 02 	sts	0x0256, r1
    10b0:	10 92 57 02 	sts	0x0257, r1
    10b4:	80 91 50 02 	lds	r24, 0x0250
    10b8:	81 95       	neg	r24
    10ba:	82 bf       	out	0x32, r24	; 50
    10bc:	ff 91       	pop	r31
    10be:	ef 91       	pop	r30
    10c0:	bf 91       	pop	r27
    10c2:	af 91       	pop	r26
    10c4:	9f 91       	pop	r25
    10c6:	8f 91       	pop	r24
    10c8:	7f 91       	pop	r23
    10ca:	6f 91       	pop	r22
    10cc:	5f 91       	pop	r21
    10ce:	4f 91       	pop	r20
    10d0:	3f 91       	pop	r19
    10d2:	2f 91       	pop	r18
    10d4:	0f 90       	pop	r0
    10d6:	0f be       	out	0x3f, r0	; 63
    10d8:	0f 90       	pop	r0
    10da:	1f 90       	pop	r1
    10dc:	18 95       	reti

000010de <GIE_voidEnableGlobal>:
    10de:	8f b7       	in	r24, 0x3f	; 63
    10e0:	80 68       	ori	r24, 0x80	; 128
    10e2:	8f bf       	out	0x3f, r24	; 63
    10e4:	08 95       	ret

000010e6 <GIE_voidDisableGlobal>:
    10e6:	8f b7       	in	r24, 0x3f	; 63
    10e8:	8f 77       	andi	r24, 0x7F	; 127
    10ea:	8f bf       	out	0x3f, r24	; 63
    10ec:	08 95       	ret

000010ee <EXTI_voidINT0Init>:
    10ee:	85 b7       	in	r24, 0x35	; 53
    10f0:	81 60       	ori	r24, 0x01	; 1
    10f2:	85 bf       	out	0x35, r24	; 53
    10f4:	85 b7       	in	r24, 0x35	; 53
    10f6:	8d 7f       	andi	r24, 0xFD	; 253
    10f8:	85 bf       	out	0x35, r24	; 53
    10fa:	8b b7       	in	r24, 0x3b	; 59
    10fc:	8f 7b       	andi	r24, 0xBF	; 191
    10fe:	8b bf       	out	0x3b, r24	; 59
    1100:	08 95       	ret

00001102 <EXTI_voidINT1Init>:
    1102:	85 b7       	in	r24, 0x35	; 53
    1104:	84 60       	ori	r24, 0x04	; 4
    1106:	85 bf       	out	0x35, r24	; 53
    1108:	85 b7       	in	r24, 0x35	; 53
    110a:	87 7f       	andi	r24, 0xF7	; 247
    110c:	85 bf       	out	0x35, r24	; 53
    110e:	8b b7       	in	r24, 0x3b	; 59
    1110:	80 68       	ori	r24, 0x80	; 128
    1112:	8b bf       	out	0x3b, r24	; 59
    1114:	08 95       	ret

00001116 <EXTI_voidINT2Init>:
    1116:	84 b7       	in	r24, 0x34	; 52
    1118:	8f 7b       	andi	r24, 0xBF	; 191
    111a:	84 bf       	out	0x34, r24	; 52
    111c:	8b b7       	in	r24, 0x3b	; 59
    111e:	8f 7d       	andi	r24, 0xDF	; 223
    1120:	8b bf       	out	0x3b, r24	; 59
    1122:	08 95       	ret

00001124 <EXTI_u8SetSenseControl>:
    1124:	81 30       	cpi	r24, 0x01	; 1
    1126:	29 f1       	breq	.+74     	; 0x1172 <EXTI_u8SetSenseControl+0x4e>
    1128:	81 30       	cpi	r24, 0x01	; 1
    112a:	20 f0       	brcs	.+8      	; 0x1134 <EXTI_u8SetSenseControl+0x10>
    112c:	82 30       	cpi	r24, 0x02	; 2
    112e:	09 f0       	breq	.+2      	; 0x1132 <EXTI_u8SetSenseControl+0xe>
    1130:	4a c0       	rjmp	.+148    	; 0x11c6 <EXTI_u8SetSenseControl+0xa2>
    1132:	3e c0       	rjmp	.+124    	; 0x11b0 <EXTI_u8SetSenseControl+0x8c>
    1134:	62 30       	cpi	r22, 0x02	; 2
    1136:	71 f0       	breq	.+28     	; 0x1154 <EXTI_u8SetSenseControl+0x30>
    1138:	63 30       	cpi	r22, 0x03	; 3
    113a:	20 f4       	brcc	.+8      	; 0x1144 <EXTI_u8SetSenseControl+0x20>
    113c:	61 30       	cpi	r22, 0x01	; 1
    113e:	09 f0       	breq	.+2      	; 0x1142 <EXTI_u8SetSenseControl+0x1e>
    1140:	42 c0       	rjmp	.+132    	; 0x11c6 <EXTI_u8SetSenseControl+0xa2>
    1142:	05 c0       	rjmp	.+10     	; 0x114e <EXTI_u8SetSenseControl+0x2a>
    1144:	63 30       	cpi	r22, 0x03	; 3
    1146:	61 f0       	breq	.+24     	; 0x1160 <EXTI_u8SetSenseControl+0x3c>
    1148:	64 30       	cpi	r22, 0x04	; 4
    114a:	e9 f5       	brne	.+122    	; 0x11c6 <EXTI_u8SetSenseControl+0xa2>
    114c:	0c c0       	rjmp	.+24     	; 0x1166 <EXTI_u8SetSenseControl+0x42>
    114e:	85 b7       	in	r24, 0x35	; 53
    1150:	8e 7f       	andi	r24, 0xFE	; 254
    1152:	02 c0       	rjmp	.+4      	; 0x1158 <EXTI_u8SetSenseControl+0x34>
    1154:	85 b7       	in	r24, 0x35	; 53
    1156:	81 60       	ori	r24, 0x01	; 1
    1158:	85 bf       	out	0x35, r24	; 53
    115a:	85 b7       	in	r24, 0x35	; 53
    115c:	8d 7f       	andi	r24, 0xFD	; 253
    115e:	26 c0       	rjmp	.+76     	; 0x11ac <EXTI_u8SetSenseControl+0x88>
    1160:	85 b7       	in	r24, 0x35	; 53
    1162:	8e 7f       	andi	r24, 0xFE	; 254
    1164:	02 c0       	rjmp	.+4      	; 0x116a <EXTI_u8SetSenseControl+0x46>
    1166:	85 b7       	in	r24, 0x35	; 53
    1168:	81 60       	ori	r24, 0x01	; 1
    116a:	85 bf       	out	0x35, r24	; 53
    116c:	85 b7       	in	r24, 0x35	; 53
    116e:	82 60       	ori	r24, 0x02	; 2
    1170:	1d c0       	rjmp	.+58     	; 0x11ac <EXTI_u8SetSenseControl+0x88>
    1172:	62 30       	cpi	r22, 0x02	; 2
    1174:	69 f0       	breq	.+26     	; 0x1190 <EXTI_u8SetSenseControl+0x6c>
    1176:	63 30       	cpi	r22, 0x03	; 3
    1178:	18 f4       	brcc	.+6      	; 0x1180 <EXTI_u8SetSenseControl+0x5c>
    117a:	61 30       	cpi	r22, 0x01	; 1
    117c:	21 f5       	brne	.+72     	; 0x11c6 <EXTI_u8SetSenseControl+0xa2>
    117e:	05 c0       	rjmp	.+10     	; 0x118a <EXTI_u8SetSenseControl+0x66>
    1180:	63 30       	cpi	r22, 0x03	; 3
    1182:	61 f0       	breq	.+24     	; 0x119c <EXTI_u8SetSenseControl+0x78>
    1184:	64 30       	cpi	r22, 0x04	; 4
    1186:	f9 f4       	brne	.+62     	; 0x11c6 <EXTI_u8SetSenseControl+0xa2>
    1188:	0c c0       	rjmp	.+24     	; 0x11a2 <EXTI_u8SetSenseControl+0x7e>
    118a:	85 b7       	in	r24, 0x35	; 53
    118c:	8b 7f       	andi	r24, 0xFB	; 251
    118e:	02 c0       	rjmp	.+4      	; 0x1194 <EXTI_u8SetSenseControl+0x70>
    1190:	85 b7       	in	r24, 0x35	; 53
    1192:	84 60       	ori	r24, 0x04	; 4
    1194:	85 bf       	out	0x35, r24	; 53
    1196:	85 b7       	in	r24, 0x35	; 53
    1198:	87 7f       	andi	r24, 0xF7	; 247
    119a:	08 c0       	rjmp	.+16     	; 0x11ac <EXTI_u8SetSenseControl+0x88>
    119c:	85 b7       	in	r24, 0x35	; 53
    119e:	8b 7f       	andi	r24, 0xFB	; 251
    11a0:	02 c0       	rjmp	.+4      	; 0x11a6 <EXTI_u8SetSenseControl+0x82>
    11a2:	85 b7       	in	r24, 0x35	; 53
    11a4:	84 60       	ori	r24, 0x04	; 4
    11a6:	85 bf       	out	0x35, r24	; 53
    11a8:	85 b7       	in	r24, 0x35	; 53
    11aa:	88 60       	ori	r24, 0x08	; 8
    11ac:	85 bf       	out	0x35, r24	; 53
    11ae:	08 95       	ret
    11b0:	63 30       	cpi	r22, 0x03	; 3
    11b2:	31 f0       	breq	.+12     	; 0x11c0 <EXTI_u8SetSenseControl+0x9c>
    11b4:	64 30       	cpi	r22, 0x04	; 4
    11b6:	39 f4       	brne	.+14     	; 0x11c6 <EXTI_u8SetSenseControl+0xa2>
    11b8:	84 b7       	in	r24, 0x34	; 52
    11ba:	80 64       	ori	r24, 0x40	; 64
    11bc:	84 bf       	out	0x34, r24	; 52
    11be:	08 95       	ret
    11c0:	84 b7       	in	r24, 0x34	; 52
    11c2:	8f 7b       	andi	r24, 0xBF	; 191
    11c4:	84 bf       	out	0x34, r24	; 52
    11c6:	08 95       	ret

000011c8 <EXTI_u8INTSetCallBack>:
    11c8:	00 97       	sbiw	r24, 0x00	; 0
    11ca:	41 f0       	breq	.+16     	; 0x11dc <EXTI_u8INTSetCallBack+0x14>
    11cc:	e6 2f       	mov	r30, r22
    11ce:	f0 e0       	ldi	r31, 0x00	; 0
    11d0:	ee 0f       	add	r30, r30
    11d2:	ff 1f       	adc	r31, r31
    11d4:	e4 5a       	subi	r30, 0xA4	; 164
    11d6:	fd 4f       	sbci	r31, 0xFD	; 253
    11d8:	91 83       	std	Z+1, r25	; 0x01
    11da:	80 83       	st	Z, r24
    11dc:	08 95       	ret

000011de <__vector_1>:
    11de:	1f 92       	push	r1
    11e0:	0f 92       	push	r0
    11e2:	0f b6       	in	r0, 0x3f	; 63
    11e4:	0f 92       	push	r0
    11e6:	11 24       	eor	r1, r1
    11e8:	2f 93       	push	r18
    11ea:	3f 93       	push	r19
    11ec:	4f 93       	push	r20
    11ee:	5f 93       	push	r21
    11f0:	6f 93       	push	r22
    11f2:	7f 93       	push	r23
    11f4:	8f 93       	push	r24
    11f6:	9f 93       	push	r25
    11f8:	af 93       	push	r26
    11fa:	bf 93       	push	r27
    11fc:	ef 93       	push	r30
    11fe:	ff 93       	push	r31
    1200:	e0 91 5c 02 	lds	r30, 0x025C
    1204:	f0 91 5d 02 	lds	r31, 0x025D
    1208:	30 97       	sbiw	r30, 0x00	; 0
    120a:	09 f0       	breq	.+2      	; 0x120e <__vector_1+0x30>
    120c:	09 95       	icall
    120e:	ff 91       	pop	r31
    1210:	ef 91       	pop	r30
    1212:	bf 91       	pop	r27
    1214:	af 91       	pop	r26
    1216:	9f 91       	pop	r25
    1218:	8f 91       	pop	r24
    121a:	7f 91       	pop	r23
    121c:	6f 91       	pop	r22
    121e:	5f 91       	pop	r21
    1220:	4f 91       	pop	r20
    1222:	3f 91       	pop	r19
    1224:	2f 91       	pop	r18
    1226:	0f 90       	pop	r0
    1228:	0f be       	out	0x3f, r0	; 63
    122a:	0f 90       	pop	r0
    122c:	1f 90       	pop	r1
    122e:	18 95       	reti

00001230 <__vector_2>:
    1230:	1f 92       	push	r1
    1232:	0f 92       	push	r0
    1234:	0f b6       	in	r0, 0x3f	; 63
    1236:	0f 92       	push	r0
    1238:	11 24       	eor	r1, r1
    123a:	2f 93       	push	r18
    123c:	3f 93       	push	r19
    123e:	4f 93       	push	r20
    1240:	5f 93       	push	r21
    1242:	6f 93       	push	r22
    1244:	7f 93       	push	r23
    1246:	8f 93       	push	r24
    1248:	9f 93       	push	r25
    124a:	af 93       	push	r26
    124c:	bf 93       	push	r27
    124e:	ef 93       	push	r30
    1250:	ff 93       	push	r31
    1252:	e0 91 5e 02 	lds	r30, 0x025E
    1256:	f0 91 5f 02 	lds	r31, 0x025F
    125a:	30 97       	sbiw	r30, 0x00	; 0
    125c:	09 f0       	breq	.+2      	; 0x1260 <__vector_2+0x30>
    125e:	09 95       	icall
    1260:	ff 91       	pop	r31
    1262:	ef 91       	pop	r30
    1264:	bf 91       	pop	r27
    1266:	af 91       	pop	r26
    1268:	9f 91       	pop	r25
    126a:	8f 91       	pop	r24
    126c:	7f 91       	pop	r23
    126e:	6f 91       	pop	r22
    1270:	5f 91       	pop	r21
    1272:	4f 91       	pop	r20
    1274:	3f 91       	pop	r19
    1276:	2f 91       	pop	r18
    1278:	0f 90       	pop	r0
    127a:	0f be       	out	0x3f, r0	; 63
    127c:	0f 90       	pop	r0
    127e:	1f 90       	pop	r1
    1280:	18 95       	reti

00001282 <__vector_3>:
    1282:	1f 92       	push	r1
    1284:	0f 92       	push	r0
    1286:	0f b6       	in	r0, 0x3f	; 63
    1288:	0f 92       	push	r0
    128a:	11 24       	eor	r1, r1
    128c:	2f 93       	push	r18
    128e:	3f 93       	push	r19
    1290:	4f 93       	push	r20
    1292:	5f 93       	push	r21
    1294:	6f 93       	push	r22
    1296:	7f 93       	push	r23
    1298:	8f 93       	push	r24
    129a:	9f 93       	push	r25
    129c:	af 93       	push	r26
    129e:	bf 93       	push	r27
    12a0:	ef 93       	push	r30
    12a2:	ff 93       	push	r31
    12a4:	80 91 60 02 	lds	r24, 0x0260
    12a8:	90 91 61 02 	lds	r25, 0x0261
    12ac:	89 2b       	or	r24, r25
    12ae:	29 f0       	breq	.+10     	; 0x12ba <__vector_3+0x38>
    12b0:	e0 91 5c 02 	lds	r30, 0x025C
    12b4:	f0 91 5d 02 	lds	r31, 0x025D
    12b8:	09 95       	icall
    12ba:	ff 91       	pop	r31
    12bc:	ef 91       	pop	r30
    12be:	bf 91       	pop	r27
    12c0:	af 91       	pop	r26
    12c2:	9f 91       	pop	r25
    12c4:	8f 91       	pop	r24
    12c6:	7f 91       	pop	r23
    12c8:	6f 91       	pop	r22
    12ca:	5f 91       	pop	r21
    12cc:	4f 91       	pop	r20
    12ce:	3f 91       	pop	r19
    12d0:	2f 91       	pop	r18
    12d2:	0f 90       	pop	r0
    12d4:	0f be       	out	0x3f, r0	; 63
    12d6:	0f 90       	pop	r0
    12d8:	1f 90       	pop	r1
    12da:	18 95       	reti

000012dc <MDIO_voidSetPinMode>:
    12dc:	38 2f       	mov	r19, r24
    12de:	88 30       	cpi	r24, 0x08	; 8
    12e0:	08 f0       	brcs	.+2      	; 0x12e4 <MDIO_voidSetPinMode+0x8>
    12e2:	75 c0       	rjmp	.+234    	; 0x13ce <MDIO_voidSetPinMode+0xf2>
    12e4:	64 30       	cpi	r22, 0x04	; 4
    12e6:	08 f0       	brcs	.+2      	; 0x12ea <MDIO_voidSetPinMode+0xe>
    12e8:	72 c0       	rjmp	.+228    	; 0x13ce <MDIO_voidSetPinMode+0xf2>
    12ea:	41 30       	cpi	r20, 0x01	; 1
    12ec:	b1 f5       	brne	.+108    	; 0x135a <MDIO_voidSetPinMode+0x7e>
    12ee:	61 30       	cpi	r22, 0x01	; 1
    12f0:	99 f0       	breq	.+38     	; 0x1318 <MDIO_voidSetPinMode+0x3c>
    12f2:	61 30       	cpi	r22, 0x01	; 1
    12f4:	30 f0       	brcs	.+12     	; 0x1302 <MDIO_voidSetPinMode+0x26>
    12f6:	62 30       	cpi	r22, 0x02	; 2
    12f8:	d1 f0       	breq	.+52     	; 0x132e <MDIO_voidSetPinMode+0x52>
    12fa:	63 30       	cpi	r22, 0x03	; 3
    12fc:	09 f0       	breq	.+2      	; 0x1300 <MDIO_voidSetPinMode+0x24>
    12fe:	67 c0       	rjmp	.+206    	; 0x13ce <MDIO_voidSetPinMode+0xf2>
    1300:	21 c0       	rjmp	.+66     	; 0x1344 <MDIO_voidSetPinMode+0x68>
    1302:	2a b3       	in	r18, 0x1a	; 26
    1304:	81 e0       	ldi	r24, 0x01	; 1
    1306:	90 e0       	ldi	r25, 0x00	; 0
    1308:	02 c0       	rjmp	.+4      	; 0x130e <MDIO_voidSetPinMode+0x32>
    130a:	88 0f       	add	r24, r24
    130c:	99 1f       	adc	r25, r25
    130e:	3a 95       	dec	r19
    1310:	e2 f7       	brpl	.-8      	; 0x130a <MDIO_voidSetPinMode+0x2e>
    1312:	28 2b       	or	r18, r24
    1314:	2a bb       	out	0x1a, r18	; 26
    1316:	08 95       	ret
    1318:	27 b3       	in	r18, 0x17	; 23
    131a:	81 e0       	ldi	r24, 0x01	; 1
    131c:	90 e0       	ldi	r25, 0x00	; 0
    131e:	02 c0       	rjmp	.+4      	; 0x1324 <MDIO_voidSetPinMode+0x48>
    1320:	88 0f       	add	r24, r24
    1322:	99 1f       	adc	r25, r25
    1324:	3a 95       	dec	r19
    1326:	e2 f7       	brpl	.-8      	; 0x1320 <MDIO_voidSetPinMode+0x44>
    1328:	28 2b       	or	r18, r24
    132a:	27 bb       	out	0x17, r18	; 23
    132c:	08 95       	ret
    132e:	24 b3       	in	r18, 0x14	; 20
    1330:	81 e0       	ldi	r24, 0x01	; 1
    1332:	90 e0       	ldi	r25, 0x00	; 0
    1334:	02 c0       	rjmp	.+4      	; 0x133a <MDIO_voidSetPinMode+0x5e>
    1336:	88 0f       	add	r24, r24
    1338:	99 1f       	adc	r25, r25
    133a:	3a 95       	dec	r19
    133c:	e2 f7       	brpl	.-8      	; 0x1336 <MDIO_voidSetPinMode+0x5a>
    133e:	28 2b       	or	r18, r24
    1340:	24 bb       	out	0x14, r18	; 20
    1342:	08 95       	ret
    1344:	21 b3       	in	r18, 0x11	; 17
    1346:	81 e0       	ldi	r24, 0x01	; 1
    1348:	90 e0       	ldi	r25, 0x00	; 0
    134a:	02 c0       	rjmp	.+4      	; 0x1350 <MDIO_voidSetPinMode+0x74>
    134c:	88 0f       	add	r24, r24
    134e:	99 1f       	adc	r25, r25
    1350:	3a 95       	dec	r19
    1352:	e2 f7       	brpl	.-8      	; 0x134c <MDIO_voidSetPinMode+0x70>
    1354:	28 2b       	or	r18, r24
    1356:	21 bb       	out	0x11, r18	; 17
    1358:	08 95       	ret
    135a:	44 23       	and	r20, r20
    135c:	c1 f5       	brne	.+112    	; 0x13ce <MDIO_voidSetPinMode+0xf2>
    135e:	61 30       	cpi	r22, 0x01	; 1
    1360:	99 f0       	breq	.+38     	; 0x1388 <MDIO_voidSetPinMode+0xac>
    1362:	61 30       	cpi	r22, 0x01	; 1
    1364:	28 f0       	brcs	.+10     	; 0x1370 <MDIO_voidSetPinMode+0x94>
    1366:	62 30       	cpi	r22, 0x02	; 2
    1368:	d9 f0       	breq	.+54     	; 0x13a0 <MDIO_voidSetPinMode+0xc4>
    136a:	63 30       	cpi	r22, 0x03	; 3
    136c:	81 f5       	brne	.+96     	; 0x13ce <MDIO_voidSetPinMode+0xf2>
    136e:	24 c0       	rjmp	.+72     	; 0x13b8 <MDIO_voidSetPinMode+0xdc>
    1370:	2a b3       	in	r18, 0x1a	; 26
    1372:	81 e0       	ldi	r24, 0x01	; 1
    1374:	90 e0       	ldi	r25, 0x00	; 0
    1376:	02 c0       	rjmp	.+4      	; 0x137c <MDIO_voidSetPinMode+0xa0>
    1378:	88 0f       	add	r24, r24
    137a:	99 1f       	adc	r25, r25
    137c:	3a 95       	dec	r19
    137e:	e2 f7       	brpl	.-8      	; 0x1378 <MDIO_voidSetPinMode+0x9c>
    1380:	80 95       	com	r24
    1382:	82 23       	and	r24, r18
    1384:	8a bb       	out	0x1a, r24	; 26
    1386:	08 95       	ret
    1388:	27 b3       	in	r18, 0x17	; 23
    138a:	81 e0       	ldi	r24, 0x01	; 1
    138c:	90 e0       	ldi	r25, 0x00	; 0
    138e:	02 c0       	rjmp	.+4      	; 0x1394 <MDIO_voidSetPinMode+0xb8>
    1390:	88 0f       	add	r24, r24
    1392:	99 1f       	adc	r25, r25
    1394:	3a 95       	dec	r19
    1396:	e2 f7       	brpl	.-8      	; 0x1390 <MDIO_voidSetPinMode+0xb4>
    1398:	80 95       	com	r24
    139a:	82 23       	and	r24, r18
    139c:	87 bb       	out	0x17, r24	; 23
    139e:	08 95       	ret
    13a0:	24 b3       	in	r18, 0x14	; 20
    13a2:	81 e0       	ldi	r24, 0x01	; 1
    13a4:	90 e0       	ldi	r25, 0x00	; 0
    13a6:	02 c0       	rjmp	.+4      	; 0x13ac <MDIO_voidSetPinMode+0xd0>
    13a8:	88 0f       	add	r24, r24
    13aa:	99 1f       	adc	r25, r25
    13ac:	3a 95       	dec	r19
    13ae:	e2 f7       	brpl	.-8      	; 0x13a8 <MDIO_voidSetPinMode+0xcc>
    13b0:	80 95       	com	r24
    13b2:	82 23       	and	r24, r18
    13b4:	84 bb       	out	0x14, r24	; 20
    13b6:	08 95       	ret
    13b8:	21 b3       	in	r18, 0x11	; 17
    13ba:	81 e0       	ldi	r24, 0x01	; 1
    13bc:	90 e0       	ldi	r25, 0x00	; 0
    13be:	02 c0       	rjmp	.+4      	; 0x13c4 <MDIO_voidSetPinMode+0xe8>
    13c0:	88 0f       	add	r24, r24
    13c2:	99 1f       	adc	r25, r25
    13c4:	3a 95       	dec	r19
    13c6:	e2 f7       	brpl	.-8      	; 0x13c0 <MDIO_voidSetPinMode+0xe4>
    13c8:	80 95       	com	r24
    13ca:	82 23       	and	r24, r18
    13cc:	81 bb       	out	0x11, r24	; 17
    13ce:	08 95       	ret

000013d0 <MDIO_voidSetPinValue>:
    13d0:	38 2f       	mov	r19, r24
    13d2:	88 30       	cpi	r24, 0x08	; 8
    13d4:	08 f0       	brcs	.+2      	; 0x13d8 <MDIO_voidSetPinValue+0x8>
    13d6:	75 c0       	rjmp	.+234    	; 0x14c2 <MDIO_voidSetPinValue+0xf2>
    13d8:	64 30       	cpi	r22, 0x04	; 4
    13da:	08 f0       	brcs	.+2      	; 0x13de <MDIO_voidSetPinValue+0xe>
    13dc:	72 c0       	rjmp	.+228    	; 0x14c2 <MDIO_voidSetPinValue+0xf2>
    13de:	41 30       	cpi	r20, 0x01	; 1
    13e0:	b1 f5       	brne	.+108    	; 0x144e <MDIO_voidSetPinValue+0x7e>
    13e2:	61 30       	cpi	r22, 0x01	; 1
    13e4:	99 f0       	breq	.+38     	; 0x140c <MDIO_voidSetPinValue+0x3c>
    13e6:	61 30       	cpi	r22, 0x01	; 1
    13e8:	30 f0       	brcs	.+12     	; 0x13f6 <MDIO_voidSetPinValue+0x26>
    13ea:	62 30       	cpi	r22, 0x02	; 2
    13ec:	d1 f0       	breq	.+52     	; 0x1422 <MDIO_voidSetPinValue+0x52>
    13ee:	63 30       	cpi	r22, 0x03	; 3
    13f0:	09 f0       	breq	.+2      	; 0x13f4 <MDIO_voidSetPinValue+0x24>
    13f2:	67 c0       	rjmp	.+206    	; 0x14c2 <MDIO_voidSetPinValue+0xf2>
    13f4:	21 c0       	rjmp	.+66     	; 0x1438 <MDIO_voidSetPinValue+0x68>
    13f6:	2b b3       	in	r18, 0x1b	; 27
    13f8:	81 e0       	ldi	r24, 0x01	; 1
    13fa:	90 e0       	ldi	r25, 0x00	; 0
    13fc:	02 c0       	rjmp	.+4      	; 0x1402 <MDIO_voidSetPinValue+0x32>
    13fe:	88 0f       	add	r24, r24
    1400:	99 1f       	adc	r25, r25
    1402:	3a 95       	dec	r19
    1404:	e2 f7       	brpl	.-8      	; 0x13fe <MDIO_voidSetPinValue+0x2e>
    1406:	28 2b       	or	r18, r24
    1408:	2b bb       	out	0x1b, r18	; 27
    140a:	08 95       	ret
    140c:	28 b3       	in	r18, 0x18	; 24
    140e:	81 e0       	ldi	r24, 0x01	; 1
    1410:	90 e0       	ldi	r25, 0x00	; 0
    1412:	02 c0       	rjmp	.+4      	; 0x1418 <MDIO_voidSetPinValue+0x48>
    1414:	88 0f       	add	r24, r24
    1416:	99 1f       	adc	r25, r25
    1418:	3a 95       	dec	r19
    141a:	e2 f7       	brpl	.-8      	; 0x1414 <MDIO_voidSetPinValue+0x44>
    141c:	28 2b       	or	r18, r24
    141e:	28 bb       	out	0x18, r18	; 24
    1420:	08 95       	ret
    1422:	25 b3       	in	r18, 0x15	; 21
    1424:	81 e0       	ldi	r24, 0x01	; 1
    1426:	90 e0       	ldi	r25, 0x00	; 0
    1428:	02 c0       	rjmp	.+4      	; 0x142e <MDIO_voidSetPinValue+0x5e>
    142a:	88 0f       	add	r24, r24
    142c:	99 1f       	adc	r25, r25
    142e:	3a 95       	dec	r19
    1430:	e2 f7       	brpl	.-8      	; 0x142a <MDIO_voidSetPinValue+0x5a>
    1432:	28 2b       	or	r18, r24
    1434:	25 bb       	out	0x15, r18	; 21
    1436:	08 95       	ret
    1438:	22 b3       	in	r18, 0x12	; 18
    143a:	81 e0       	ldi	r24, 0x01	; 1
    143c:	90 e0       	ldi	r25, 0x00	; 0
    143e:	02 c0       	rjmp	.+4      	; 0x1444 <MDIO_voidSetPinValue+0x74>
    1440:	88 0f       	add	r24, r24
    1442:	99 1f       	adc	r25, r25
    1444:	3a 95       	dec	r19
    1446:	e2 f7       	brpl	.-8      	; 0x1440 <MDIO_voidSetPinValue+0x70>
    1448:	28 2b       	or	r18, r24
    144a:	22 bb       	out	0x12, r18	; 18
    144c:	08 95       	ret
    144e:	44 23       	and	r20, r20
    1450:	c1 f5       	brne	.+112    	; 0x14c2 <MDIO_voidSetPinValue+0xf2>
    1452:	61 30       	cpi	r22, 0x01	; 1
    1454:	99 f0       	breq	.+38     	; 0x147c <MDIO_voidSetPinValue+0xac>
    1456:	61 30       	cpi	r22, 0x01	; 1
    1458:	28 f0       	brcs	.+10     	; 0x1464 <MDIO_voidSetPinValue+0x94>
    145a:	62 30       	cpi	r22, 0x02	; 2
    145c:	d9 f0       	breq	.+54     	; 0x1494 <MDIO_voidSetPinValue+0xc4>
    145e:	63 30       	cpi	r22, 0x03	; 3
    1460:	81 f5       	brne	.+96     	; 0x14c2 <MDIO_voidSetPinValue+0xf2>
    1462:	24 c0       	rjmp	.+72     	; 0x14ac <MDIO_voidSetPinValue+0xdc>
    1464:	2b b3       	in	r18, 0x1b	; 27
    1466:	81 e0       	ldi	r24, 0x01	; 1
    1468:	90 e0       	ldi	r25, 0x00	; 0
    146a:	02 c0       	rjmp	.+4      	; 0x1470 <MDIO_voidSetPinValue+0xa0>
    146c:	88 0f       	add	r24, r24
    146e:	99 1f       	adc	r25, r25
    1470:	3a 95       	dec	r19
    1472:	e2 f7       	brpl	.-8      	; 0x146c <MDIO_voidSetPinValue+0x9c>
    1474:	80 95       	com	r24
    1476:	82 23       	and	r24, r18
    1478:	8b bb       	out	0x1b, r24	; 27
    147a:	08 95       	ret
    147c:	28 b3       	in	r18, 0x18	; 24
    147e:	81 e0       	ldi	r24, 0x01	; 1
    1480:	90 e0       	ldi	r25, 0x00	; 0
    1482:	02 c0       	rjmp	.+4      	; 0x1488 <MDIO_voidSetPinValue+0xb8>
    1484:	88 0f       	add	r24, r24
    1486:	99 1f       	adc	r25, r25
    1488:	3a 95       	dec	r19
    148a:	e2 f7       	brpl	.-8      	; 0x1484 <MDIO_voidSetPinValue+0xb4>
    148c:	80 95       	com	r24
    148e:	82 23       	and	r24, r18
    1490:	88 bb       	out	0x18, r24	; 24
    1492:	08 95       	ret
    1494:	25 b3       	in	r18, 0x15	; 21
    1496:	81 e0       	ldi	r24, 0x01	; 1
    1498:	90 e0       	ldi	r25, 0x00	; 0
    149a:	02 c0       	rjmp	.+4      	; 0x14a0 <MDIO_voidSetPinValue+0xd0>
    149c:	88 0f       	add	r24, r24
    149e:	99 1f       	adc	r25, r25
    14a0:	3a 95       	dec	r19
    14a2:	e2 f7       	brpl	.-8      	; 0x149c <MDIO_voidSetPinValue+0xcc>
    14a4:	80 95       	com	r24
    14a6:	82 23       	and	r24, r18
    14a8:	85 bb       	out	0x15, r24	; 21
    14aa:	08 95       	ret
    14ac:	22 b3       	in	r18, 0x12	; 18
    14ae:	81 e0       	ldi	r24, 0x01	; 1
    14b0:	90 e0       	ldi	r25, 0x00	; 0
    14b2:	02 c0       	rjmp	.+4      	; 0x14b8 <MDIO_voidSetPinValue+0xe8>
    14b4:	88 0f       	add	r24, r24
    14b6:	99 1f       	adc	r25, r25
    14b8:	3a 95       	dec	r19
    14ba:	e2 f7       	brpl	.-8      	; 0x14b4 <MDIO_voidSetPinValue+0xe4>
    14bc:	80 95       	com	r24
    14be:	82 23       	and	r24, r18
    14c0:	82 bb       	out	0x12, r24	; 18
    14c2:	08 95       	ret

000014c4 <MDIO_voidTogPinValue>:
    14c4:	38 2f       	mov	r19, r24
    14c6:	88 30       	cpi	r24, 0x08	; 8
    14c8:	b0 f5       	brcc	.+108    	; 0x1536 <MDIO_voidTogPinValue+0x72>
    14ca:	64 30       	cpi	r22, 0x04	; 4
    14cc:	a0 f5       	brcc	.+104    	; 0x1536 <MDIO_voidTogPinValue+0x72>
    14ce:	61 30       	cpi	r22, 0x01	; 1
    14d0:	91 f0       	breq	.+36     	; 0x14f6 <MDIO_voidTogPinValue+0x32>
    14d2:	61 30       	cpi	r22, 0x01	; 1
    14d4:	28 f0       	brcs	.+10     	; 0x14e0 <MDIO_voidTogPinValue+0x1c>
    14d6:	62 30       	cpi	r22, 0x02	; 2
    14d8:	c9 f0       	breq	.+50     	; 0x150c <MDIO_voidTogPinValue+0x48>
    14da:	63 30       	cpi	r22, 0x03	; 3
    14dc:	61 f5       	brne	.+88     	; 0x1536 <MDIO_voidTogPinValue+0x72>
    14de:	21 c0       	rjmp	.+66     	; 0x1522 <MDIO_voidTogPinValue+0x5e>
    14e0:	2b b3       	in	r18, 0x1b	; 27
    14e2:	81 e0       	ldi	r24, 0x01	; 1
    14e4:	90 e0       	ldi	r25, 0x00	; 0
    14e6:	02 c0       	rjmp	.+4      	; 0x14ec <MDIO_voidTogPinValue+0x28>
    14e8:	88 0f       	add	r24, r24
    14ea:	99 1f       	adc	r25, r25
    14ec:	3a 95       	dec	r19
    14ee:	e2 f7       	brpl	.-8      	; 0x14e8 <MDIO_voidTogPinValue+0x24>
    14f0:	28 27       	eor	r18, r24
    14f2:	2b bb       	out	0x1b, r18	; 27
    14f4:	08 95       	ret
    14f6:	28 b3       	in	r18, 0x18	; 24
    14f8:	81 e0       	ldi	r24, 0x01	; 1
    14fa:	90 e0       	ldi	r25, 0x00	; 0
    14fc:	02 c0       	rjmp	.+4      	; 0x1502 <MDIO_voidTogPinValue+0x3e>
    14fe:	88 0f       	add	r24, r24
    1500:	99 1f       	adc	r25, r25
    1502:	3a 95       	dec	r19
    1504:	e2 f7       	brpl	.-8      	; 0x14fe <MDIO_voidTogPinValue+0x3a>
    1506:	28 27       	eor	r18, r24
    1508:	28 bb       	out	0x18, r18	; 24
    150a:	08 95       	ret
    150c:	25 b3       	in	r18, 0x15	; 21
    150e:	81 e0       	ldi	r24, 0x01	; 1
    1510:	90 e0       	ldi	r25, 0x00	; 0
    1512:	02 c0       	rjmp	.+4      	; 0x1518 <MDIO_voidTogPinValue+0x54>
    1514:	88 0f       	add	r24, r24
    1516:	99 1f       	adc	r25, r25
    1518:	3a 95       	dec	r19
    151a:	e2 f7       	brpl	.-8      	; 0x1514 <MDIO_voidTogPinValue+0x50>
    151c:	28 27       	eor	r18, r24
    151e:	25 bb       	out	0x15, r18	; 21
    1520:	08 95       	ret
    1522:	22 b3       	in	r18, 0x12	; 18
    1524:	81 e0       	ldi	r24, 0x01	; 1
    1526:	90 e0       	ldi	r25, 0x00	; 0
    1528:	02 c0       	rjmp	.+4      	; 0x152e <MDIO_voidTogPinValue+0x6a>
    152a:	88 0f       	add	r24, r24
    152c:	99 1f       	adc	r25, r25
    152e:	3a 95       	dec	r19
    1530:	e2 f7       	brpl	.-8      	; 0x152a <MDIO_voidTogPinValue+0x66>
    1532:	28 27       	eor	r18, r24
    1534:	22 bb       	out	0x12, r18	; 18
    1536:	08 95       	ret

00001538 <MDIO_u8GetPinValue>:
    1538:	38 2f       	mov	r19, r24
    153a:	88 30       	cpi	r24, 0x08	; 8
    153c:	d0 f4       	brcc	.+52     	; 0x1572 <MDIO_u8GetPinValue+0x3a>
    153e:	64 30       	cpi	r22, 0x04	; 4
    1540:	c0 f4       	brcc	.+48     	; 0x1572 <MDIO_u8GetPinValue+0x3a>
    1542:	61 30       	cpi	r22, 0x01	; 1
    1544:	49 f0       	breq	.+18     	; 0x1558 <MDIO_u8GetPinValue+0x20>
    1546:	61 30       	cpi	r22, 0x01	; 1
    1548:	28 f0       	brcs	.+10     	; 0x1554 <MDIO_u8GetPinValue+0x1c>
    154a:	62 30       	cpi	r22, 0x02	; 2
    154c:	39 f0       	breq	.+14     	; 0x155c <MDIO_u8GetPinValue+0x24>
    154e:	63 30       	cpi	r22, 0x03	; 3
    1550:	81 f4       	brne	.+32     	; 0x1572 <MDIO_u8GetPinValue+0x3a>
    1552:	06 c0       	rjmp	.+12     	; 0x1560 <MDIO_u8GetPinValue+0x28>
    1554:	29 b3       	in	r18, 0x19	; 25
    1556:	05 c0       	rjmp	.+10     	; 0x1562 <MDIO_u8GetPinValue+0x2a>
    1558:	26 b3       	in	r18, 0x16	; 22
    155a:	03 c0       	rjmp	.+6      	; 0x1562 <MDIO_u8GetPinValue+0x2a>
    155c:	23 b3       	in	r18, 0x13	; 19
    155e:	01 c0       	rjmp	.+2      	; 0x1562 <MDIO_u8GetPinValue+0x2a>
    1560:	20 b3       	in	r18, 0x10	; 16
    1562:	81 e0       	ldi	r24, 0x01	; 1
    1564:	90 e0       	ldi	r25, 0x00	; 0
    1566:	02 c0       	rjmp	.+4      	; 0x156c <MDIO_u8GetPinValue+0x34>
    1568:	88 0f       	add	r24, r24
    156a:	99 1f       	adc	r25, r25
    156c:	3a 95       	dec	r19
    156e:	e2 f7       	brpl	.-8      	; 0x1568 <MDIO_u8GetPinValue+0x30>
    1570:	28 23       	and	r18, r24
    1572:	82 2f       	mov	r24, r18
    1574:	08 95       	ret

00001576 <MDIO_voidSetPortMode>:
    1576:	84 30       	cpi	r24, 0x04	; 4
    1578:	80 f4       	brcc	.+32     	; 0x159a <MDIO_voidSetPortMode+0x24>
    157a:	81 30       	cpi	r24, 0x01	; 1
    157c:	49 f0       	breq	.+18     	; 0x1590 <MDIO_voidSetPortMode+0x1a>
    157e:	81 30       	cpi	r24, 0x01	; 1
    1580:	28 f0       	brcs	.+10     	; 0x158c <MDIO_voidSetPortMode+0x16>
    1582:	82 30       	cpi	r24, 0x02	; 2
    1584:	39 f0       	breq	.+14     	; 0x1594 <MDIO_voidSetPortMode+0x1e>
    1586:	83 30       	cpi	r24, 0x03	; 3
    1588:	41 f4       	brne	.+16     	; 0x159a <MDIO_voidSetPortMode+0x24>
    158a:	06 c0       	rjmp	.+12     	; 0x1598 <MDIO_voidSetPortMode+0x22>
    158c:	6a bb       	out	0x1a, r22	; 26
    158e:	08 95       	ret
    1590:	67 bb       	out	0x17, r22	; 23
    1592:	08 95       	ret
    1594:	64 bb       	out	0x14, r22	; 20
    1596:	08 95       	ret
    1598:	61 bb       	out	0x11, r22	; 17
    159a:	08 95       	ret

0000159c <MDIO_voidSetPortValue>:
    159c:	84 30       	cpi	r24, 0x04	; 4
    159e:	80 f4       	brcc	.+32     	; 0x15c0 <MDIO_voidSetPortValue+0x24>
    15a0:	81 30       	cpi	r24, 0x01	; 1
    15a2:	49 f0       	breq	.+18     	; 0x15b6 <MDIO_voidSetPortValue+0x1a>
    15a4:	81 30       	cpi	r24, 0x01	; 1
    15a6:	28 f0       	brcs	.+10     	; 0x15b2 <MDIO_voidSetPortValue+0x16>
    15a8:	82 30       	cpi	r24, 0x02	; 2
    15aa:	39 f0       	breq	.+14     	; 0x15ba <MDIO_voidSetPortValue+0x1e>
    15ac:	83 30       	cpi	r24, 0x03	; 3
    15ae:	41 f4       	brne	.+16     	; 0x15c0 <MDIO_voidSetPortValue+0x24>
    15b0:	06 c0       	rjmp	.+12     	; 0x15be <MDIO_voidSetPortValue+0x22>
    15b2:	6b bb       	out	0x1b, r22	; 27
    15b4:	08 95       	ret
    15b6:	68 bb       	out	0x18, r22	; 24
    15b8:	08 95       	ret
    15ba:	65 bb       	out	0x15, r22	; 21
    15bc:	08 95       	ret
    15be:	62 bb       	out	0x12, r22	; 18
    15c0:	08 95       	ret

000015c2 <MDIO_voidTogPortValue>:
    15c2:	84 30       	cpi	r24, 0x04	; 4
    15c4:	c0 f4       	brcc	.+48     	; 0x15f6 <MDIO_voidTogPortValue+0x34>
    15c6:	81 30       	cpi	r24, 0x01	; 1
    15c8:	59 f0       	breq	.+22     	; 0x15e0 <MDIO_voidTogPortValue+0x1e>
    15ca:	81 30       	cpi	r24, 0x01	; 1
    15cc:	28 f0       	brcs	.+10     	; 0x15d8 <MDIO_voidTogPortValue+0x16>
    15ce:	82 30       	cpi	r24, 0x02	; 2
    15d0:	59 f0       	breq	.+22     	; 0x15e8 <MDIO_voidTogPortValue+0x26>
    15d2:	83 30       	cpi	r24, 0x03	; 3
    15d4:	81 f4       	brne	.+32     	; 0x15f6 <MDIO_voidTogPortValue+0x34>
    15d6:	0c c0       	rjmp	.+24     	; 0x15f0 <MDIO_voidTogPortValue+0x2e>
    15d8:	8b b3       	in	r24, 0x1b	; 27
    15da:	80 95       	com	r24
    15dc:	8b bb       	out	0x1b, r24	; 27
    15de:	08 95       	ret
    15e0:	88 b3       	in	r24, 0x18	; 24
    15e2:	80 95       	com	r24
    15e4:	88 bb       	out	0x18, r24	; 24
    15e6:	08 95       	ret
    15e8:	85 b3       	in	r24, 0x15	; 21
    15ea:	80 95       	com	r24
    15ec:	85 bb       	out	0x15, r24	; 21
    15ee:	08 95       	ret
    15f0:	82 b3       	in	r24, 0x12	; 18
    15f2:	80 95       	com	r24
    15f4:	82 bb       	out	0x12, r24	; 18
    15f6:	08 95       	ret

000015f8 <MDIO_u8GetPortValue>:
    15f8:	84 30       	cpi	r24, 0x04	; 4
    15fa:	80 f4       	brcc	.+32     	; 0x161c <MDIO_u8GetPortValue+0x24>
    15fc:	81 30       	cpi	r24, 0x01	; 1
    15fe:	49 f0       	breq	.+18     	; 0x1612 <MDIO_u8GetPortValue+0x1a>
    1600:	81 30       	cpi	r24, 0x01	; 1
    1602:	28 f0       	brcs	.+10     	; 0x160e <MDIO_u8GetPortValue+0x16>
    1604:	82 30       	cpi	r24, 0x02	; 2
    1606:	39 f0       	breq	.+14     	; 0x1616 <MDIO_u8GetPortValue+0x1e>
    1608:	83 30       	cpi	r24, 0x03	; 3
    160a:	41 f4       	brne	.+16     	; 0x161c <MDIO_u8GetPortValue+0x24>
    160c:	06 c0       	rjmp	.+12     	; 0x161a <MDIO_u8GetPortValue+0x22>
    160e:	89 b3       	in	r24, 0x19	; 25
    1610:	08 95       	ret
    1612:	86 b3       	in	r24, 0x16	; 22
    1614:	08 95       	ret
    1616:	83 b3       	in	r24, 0x13	; 19
    1618:	08 95       	ret
    161a:	80 b3       	in	r24, 0x10	; 16
    161c:	08 95       	ret

0000161e <ADC_voidInit>:
    161e:	3e 9a       	sbi	0x07, 6	; 7
    1620:	3f 98       	cbi	0x07, 7	; 7
    1622:	3d 98       	cbi	0x07, 5	; 7
    1624:	32 9a       	sbi	0x06, 2	; 6
    1626:	31 9a       	sbi	0x06, 1	; 6
    1628:	30 9a       	sbi	0x06, 0	; 6
    162a:	35 98       	cbi	0x06, 5	; 6
    162c:	37 9a       	sbi	0x06, 7	; 6
    162e:	08 95       	ret

00001630 <ADC_u16Read>:
    1630:	15 b8       	out	0x05, r1	; 5
    1632:	14 b8       	out	0x04, r1	; 4
    1634:	97 b1       	in	r25, 0x07	; 7
    1636:	90 77       	andi	r25, 0x70	; 112
    1638:	97 b9       	out	0x07, r25	; 7
    163a:	8f 70       	andi	r24, 0x0F	; 15
    163c:	83 30       	cpi	r24, 0x03	; 3
    163e:	c1 f0       	breq	.+48     	; 0x1670 <ADC_u16Read+0x40>
    1640:	84 30       	cpi	r24, 0x04	; 4
    1642:	28 f4       	brcc	.+10     	; 0x164e <ADC_u16Read+0x1e>
    1644:	81 30       	cpi	r24, 0x01	; 1
    1646:	71 f0       	breq	.+28     	; 0x1664 <ADC_u16Read+0x34>
    1648:	82 30       	cpi	r24, 0x02	; 2
    164a:	80 f4       	brcc	.+32     	; 0x166c <ADC_u16Read+0x3c>
    164c:	09 c0       	rjmp	.+18     	; 0x1660 <ADC_u16Read+0x30>
    164e:	85 30       	cpi	r24, 0x05	; 5
    1650:	a1 f0       	breq	.+40     	; 0x167a <ADC_u16Read+0x4a>
    1652:	85 30       	cpi	r24, 0x05	; 5
    1654:	80 f0       	brcs	.+32     	; 0x1676 <ADC_u16Read+0x46>
    1656:	86 30       	cpi	r24, 0x06	; 6
    1658:	99 f0       	breq	.+38     	; 0x1680 <ADC_u16Read+0x50>
    165a:	87 30       	cpi	r24, 0x07	; 7
    165c:	b1 f4       	brne	.+44     	; 0x168a <ADC_u16Read+0x5a>
    165e:	12 c0       	rjmp	.+36     	; 0x1684 <ADC_u16Read+0x54>
    1660:	38 98       	cbi	0x07, 0	; 7
    1662:	01 c0       	rjmp	.+2      	; 0x1666 <ADC_u16Read+0x36>
    1664:	38 9a       	sbi	0x07, 0	; 7
    1666:	39 98       	cbi	0x07, 1	; 7
    1668:	3a 98       	cbi	0x07, 2	; 7
    166a:	0f c0       	rjmp	.+30     	; 0x168a <ADC_u16Read+0x5a>
    166c:	38 98       	cbi	0x07, 0	; 7
    166e:	01 c0       	rjmp	.+2      	; 0x1672 <ADC_u16Read+0x42>
    1670:	38 9a       	sbi	0x07, 0	; 7
    1672:	39 9a       	sbi	0x07, 1	; 7
    1674:	f9 cf       	rjmp	.-14     	; 0x1668 <ADC_u16Read+0x38>
    1676:	38 98       	cbi	0x07, 0	; 7
    1678:	01 c0       	rjmp	.+2      	; 0x167c <ADC_u16Read+0x4c>
    167a:	38 9a       	sbi	0x07, 0	; 7
    167c:	39 98       	cbi	0x07, 1	; 7
    167e:	04 c0       	rjmp	.+8      	; 0x1688 <ADC_u16Read+0x58>
    1680:	38 98       	cbi	0x07, 0	; 7
    1682:	01 c0       	rjmp	.+2      	; 0x1686 <ADC_u16Read+0x56>
    1684:	38 9a       	sbi	0x07, 0	; 7
    1686:	39 9a       	sbi	0x07, 1	; 7
    1688:	3a 9a       	sbi	0x07, 2	; 7
    168a:	36 9a       	sbi	0x06, 6	; 6
    168c:	34 9b       	sbis	0x06, 4	; 6
    168e:	fe cf       	rjmp	.-4      	; 0x168c <ADC_u16Read+0x5c>
    1690:	34 9a       	sbi	0x06, 4	; 6
    1692:	24 b1       	in	r18, 0x04	; 4
    1694:	35 b1       	in	r19, 0x05	; 5
    1696:	c9 01       	movw	r24, r18
    1698:	08 95       	ret

0000169a <ADC_voidEnabled>:
    169a:	37 9a       	sbi	0x06, 7	; 6
    169c:	08 95       	ret

0000169e <ADC_voidDisabled>:
    169e:	37 98       	cbi	0x06, 7	; 6
    16a0:	08 95       	ret

000016a2 <SERVO_INIT>:
    16a2:	2f b5       	in	r18, 0x2f	; 47
    16a4:	22 60       	ori	r18, 0x02	; 2
    16a6:	2f bd       	out	0x2f, r18	; 47
    16a8:	2f b5       	in	r18, 0x2f	; 47
    16aa:	2e 7f       	andi	r18, 0xFE	; 254
    16ac:	2f bd       	out	0x2f, r18	; 47
    16ae:	2e b5       	in	r18, 0x2e	; 46
    16b0:	20 61       	ori	r18, 0x10	; 16
    16b2:	2e bd       	out	0x2e, r18	; 46
    16b4:	2e b5       	in	r18, 0x2e	; 46
    16b6:	28 60       	ori	r18, 0x08	; 8
    16b8:	2e bd       	out	0x2e, r18	; 46
    16ba:	2f b5       	in	r18, 0x2f	; 47
    16bc:	20 68       	ori	r18, 0x80	; 128
    16be:	2f bd       	out	0x2f, r18	; 47
    16c0:	2f b5       	in	r18, 0x2f	; 47
    16c2:	2f 7b       	andi	r18, 0xBF	; 191
    16c4:	2f bd       	out	0x2f, r18	; 47
    16c6:	2f e1       	ldi	r18, 0x1F	; 31
    16c8:	3e e4       	ldi	r19, 0x4E	; 78
    16ca:	37 bd       	out	0x27, r19	; 39
    16cc:	26 bd       	out	0x26, r18	; 38
    16ce:	9b bd       	out	0x2b, r25	; 43
    16d0:	8a bd       	out	0x2a, r24	; 42
    16d2:	8e b5       	in	r24, 0x2e	; 46
    16d4:	8b 7f       	andi	r24, 0xFB	; 251
    16d6:	8e bd       	out	0x2e, r24	; 46
    16d8:	8e b5       	in	r24, 0x2e	; 46
    16da:	82 60       	ori	r24, 0x02	; 2
    16dc:	8e bd       	out	0x2e, r24	; 46
    16de:	8e b5       	in	r24, 0x2e	; 46
    16e0:	8e 7f       	andi	r24, 0xFE	; 254
    16e2:	8e bd       	out	0x2e, r24	; 46
    16e4:	08 95       	ret

000016e6 <SERVO_STOP>:
    16e6:	0e 94 ec 06 	call	0xdd8	; 0xdd8 <PWM1_voidStop>
    16ea:	08 95       	ret

000016ec <SERVO_START>:
    16ec:	0e 94 e2 06 	call	0xdc4	; 0xdc4 <PWM1_voidStart>
    16f0:	08 95       	ret

000016f2 <SET_SERVO_ANGLE>:
    16f2:	9c 01       	movw	r18, r24
    16f4:	22 0f       	add	r18, r18
    16f6:	33 1f       	adc	r19, r19
    16f8:	22 0f       	add	r18, r18
    16fa:	33 1f       	adc	r19, r19
    16fc:	82 0f       	add	r24, r18
    16fe:	93 1f       	adc	r25, r19
    1700:	64 eb       	ldi	r22, 0xB4	; 180
    1702:	70 e0       	ldi	r23, 0x00	; 0
    1704:	0e 94 ea 12 	call	0x25d4	; 0x25d4 <__udivmodhi4>
    1708:	6b 5f       	subi	r22, 0xFB	; 251
    170a:	7f 4f       	sbci	r23, 0xFF	; 255
    170c:	80 e0       	ldi	r24, 0x00	; 0
    170e:	90 e0       	ldi	r25, 0x00	; 0
    1710:	0e 94 c8 06 	call	0xd90	; 0xd90 <PWM1_voidSetDutyCycle>
    1714:	08 95       	ret

00001716 <HLED_voidToggle>:
    1716:	0e 94 62 0a 	call	0x14c4	; 0x14c4 <MDIO_voidTogPinValue>
    171a:	08 95       	ret

0000171c <HLED_voidOff>:
    171c:	40 e0       	ldi	r20, 0x00	; 0
    171e:	0e 94 e8 09 	call	0x13d0	; 0x13d0 <MDIO_voidSetPinValue>
    1722:	08 95       	ret

00001724 <HLED_voidOn>:
    1724:	41 e0       	ldi	r20, 0x01	; 1
    1726:	0e 94 e8 09 	call	0x13d0	; 0x13d0 <MDIO_voidSetPinValue>
    172a:	08 95       	ret

0000172c <HLED_voidInit>:
    172c:	0f 93       	push	r16
    172e:	1f 93       	push	r17
    1730:	18 2f       	mov	r17, r24
    1732:	06 2f       	mov	r16, r22
    1734:	41 e0       	ldi	r20, 0x01	; 1
    1736:	0e 94 6e 09 	call	0x12dc	; 0x12dc <MDIO_voidSetPinMode>
    173a:	81 2f       	mov	r24, r17
    173c:	60 2f       	mov	r22, r16
    173e:	40 e0       	ldi	r20, 0x00	; 0
    1740:	0e 94 e8 09 	call	0x13d0	; 0x13d0 <MDIO_voidSetPinValue>
    1744:	1f 91       	pop	r17
    1746:	0f 91       	pop	r16
    1748:	08 95       	ret

0000174a <HLCD_voidWriteChracter>:
    174a:	ef 92       	push	r14
    174c:	ff 92       	push	r15
    174e:	1f 93       	push	r17
    1750:	18 2f       	mov	r17, r24
    1752:	80 e0       	ldi	r24, 0x00	; 0
    1754:	62 e0       	ldi	r22, 0x02	; 2
    1756:	41 e0       	ldi	r20, 0x01	; 1
    1758:	0e 94 e8 09 	call	0x13d0	; 0x13d0 <MDIO_voidSetPinValue>
    175c:	81 e0       	ldi	r24, 0x01	; 1
    175e:	62 e0       	ldi	r22, 0x02	; 2
    1760:	40 e0       	ldi	r20, 0x00	; 0
    1762:	0e 94 e8 09 	call	0x13d0	; 0x13d0 <MDIO_voidSetPinValue>
    1766:	41 2f       	mov	r20, r17
    1768:	40 71       	andi	r20, 0x10	; 16
    176a:	84 e0       	ldi	r24, 0x04	; 4
    176c:	62 e0       	ldi	r22, 0x02	; 2
    176e:	0e 94 e8 09 	call	0x13d0	; 0x13d0 <MDIO_voidSetPinValue>
    1772:	41 2f       	mov	r20, r17
    1774:	40 72       	andi	r20, 0x20	; 32
    1776:	85 e0       	ldi	r24, 0x05	; 5
    1778:	62 e0       	ldi	r22, 0x02	; 2
    177a:	0e 94 e8 09 	call	0x13d0	; 0x13d0 <MDIO_voidSetPinValue>
    177e:	41 2f       	mov	r20, r17
    1780:	40 74       	andi	r20, 0x40	; 64
    1782:	86 e0       	ldi	r24, 0x06	; 6
    1784:	62 e0       	ldi	r22, 0x02	; 2
    1786:	0e 94 e8 09 	call	0x13d0	; 0x13d0 <MDIO_voidSetPinValue>
    178a:	41 2f       	mov	r20, r17
    178c:	40 78       	andi	r20, 0x80	; 128
    178e:	87 e0       	ldi	r24, 0x07	; 7
    1790:	62 e0       	ldi	r22, 0x02	; 2
    1792:	0e 94 e8 09 	call	0x13d0	; 0x13d0 <MDIO_voidSetPinValue>
    1796:	82 e0       	ldi	r24, 0x02	; 2
    1798:	62 e0       	ldi	r22, 0x02	; 2
    179a:	41 e0       	ldi	r20, 0x01	; 1
    179c:	0e 94 e8 09 	call	0x13d0	; 0x13d0 <MDIO_voidSetPinValue>
    17a0:	82 e0       	ldi	r24, 0x02	; 2
    17a2:	62 e0       	ldi	r22, 0x02	; 2
    17a4:	40 e0       	ldi	r20, 0x00	; 0
    17a6:	0e 94 e8 09 	call	0x13d0	; 0x13d0 <MDIO_voidSetPinValue>
    17aa:	80 e1       	ldi	r24, 0x10	; 16
    17ac:	e8 2e       	mov	r14, r24
    17ae:	87 e2       	ldi	r24, 0x27	; 39
    17b0:	f8 2e       	mov	r15, r24
    17b2:	c7 01       	movw	r24, r14
    17b4:	01 97       	sbiw	r24, 0x01	; 1
    17b6:	f1 f7       	brne	.-4      	; 0x17b4 <HLCD_voidWriteChracter+0x6a>
    17b8:	41 2f       	mov	r20, r17
    17ba:	41 70       	andi	r20, 0x01	; 1
    17bc:	84 e0       	ldi	r24, 0x04	; 4
    17be:	62 e0       	ldi	r22, 0x02	; 2
    17c0:	0e 94 e8 09 	call	0x13d0	; 0x13d0 <MDIO_voidSetPinValue>
    17c4:	41 2f       	mov	r20, r17
    17c6:	42 70       	andi	r20, 0x02	; 2
    17c8:	85 e0       	ldi	r24, 0x05	; 5
    17ca:	62 e0       	ldi	r22, 0x02	; 2
    17cc:	0e 94 e8 09 	call	0x13d0	; 0x13d0 <MDIO_voidSetPinValue>
    17d0:	41 2f       	mov	r20, r17
    17d2:	44 70       	andi	r20, 0x04	; 4
    17d4:	86 e0       	ldi	r24, 0x06	; 6
    17d6:	62 e0       	ldi	r22, 0x02	; 2
    17d8:	0e 94 e8 09 	call	0x13d0	; 0x13d0 <MDIO_voidSetPinValue>
    17dc:	18 70       	andi	r17, 0x08	; 8
    17de:	87 e0       	ldi	r24, 0x07	; 7
    17e0:	62 e0       	ldi	r22, 0x02	; 2
    17e2:	41 2f       	mov	r20, r17
    17e4:	0e 94 e8 09 	call	0x13d0	; 0x13d0 <MDIO_voidSetPinValue>
    17e8:	82 e0       	ldi	r24, 0x02	; 2
    17ea:	62 e0       	ldi	r22, 0x02	; 2
    17ec:	41 e0       	ldi	r20, 0x01	; 1
    17ee:	0e 94 e8 09 	call	0x13d0	; 0x13d0 <MDIO_voidSetPinValue>
    17f2:	82 e0       	ldi	r24, 0x02	; 2
    17f4:	62 e0       	ldi	r22, 0x02	; 2
    17f6:	40 e0       	ldi	r20, 0x00	; 0
    17f8:	0e 94 e8 09 	call	0x13d0	; 0x13d0 <MDIO_voidSetPinValue>
    17fc:	c7 01       	movw	r24, r14
    17fe:	01 97       	sbiw	r24, 0x01	; 1
    1800:	f1 f7       	brne	.-4      	; 0x17fe <HLCD_voidWriteChracter+0xb4>
    1802:	1f 91       	pop	r17
    1804:	ff 90       	pop	r15
    1806:	ef 90       	pop	r14
    1808:	08 95       	ret

0000180a <HLCD_voidWriteFloatNumber>:
    180a:	2f 92       	push	r2
    180c:	3f 92       	push	r3
    180e:	4f 92       	push	r4
    1810:	5f 92       	push	r5
    1812:	6f 92       	push	r6
    1814:	7f 92       	push	r7
    1816:	8f 92       	push	r8
    1818:	9f 92       	push	r9
    181a:	af 92       	push	r10
    181c:	bf 92       	push	r11
    181e:	cf 92       	push	r12
    1820:	df 92       	push	r13
    1822:	ef 92       	push	r14
    1824:	ff 92       	push	r15
    1826:	0f 93       	push	r16
    1828:	1f 93       	push	r17
    182a:	df 93       	push	r29
    182c:	cf 93       	push	r28
    182e:	cd b7       	in	r28, 0x3d	; 61
    1830:	de b7       	in	r29, 0x3e	; 62
    1832:	66 97       	sbiw	r28, 0x16	; 22
    1834:	0f b6       	in	r0, 0x3f	; 63
    1836:	f8 94       	cli
    1838:	de bf       	out	0x3e, r29	; 62
    183a:	0f be       	out	0x3f, r0	; 63
    183c:	cd bf       	out	0x3d, r28	; 61
    183e:	4b 01       	movw	r8, r22
    1840:	5c 01       	movw	r10, r24
    1842:	20 e0       	ldi	r18, 0x00	; 0
    1844:	30 e0       	ldi	r19, 0x00	; 0
    1846:	40 e0       	ldi	r20, 0x00	; 0
    1848:	50 e0       	ldi	r21, 0x00	; 0
    184a:	0e 94 49 03 	call	0x692	; 0x692 <__ltsf2>
    184e:	87 fd       	sbrc	r24, 7
    1850:	07 c0       	rjmp	.+14     	; 0x1860 <HLCD_voidWriteFloatNumber+0x56>
    1852:	c5 01       	movw	r24, r10
    1854:	b4 01       	movw	r22, r8
    1856:	0e 94 49 00 	call	0x92	; 0x92 <__fixunssfsi>
    185a:	2b 01       	movw	r4, r22
    185c:	3c 01       	movw	r6, r24
    185e:	0d c0       	rjmp	.+26     	; 0x187a <HLCD_voidWriteFloatNumber+0x70>
    1860:	b7 fa       	bst	r11, 7
    1862:	b0 94       	com	r11
    1864:	b7 f8       	bld	r11, 7
    1866:	b0 94       	com	r11
    1868:	c5 01       	movw	r24, r10
    186a:	b4 01       	movw	r22, r8
    186c:	0e 94 49 00 	call	0x92	; 0x92 <__fixunssfsi>
    1870:	2b 01       	movw	r4, r22
    1872:	3c 01       	movw	r6, r24
    1874:	8d e2       	ldi	r24, 0x2D	; 45
    1876:	0e 94 a5 0b 	call	0x174a	; 0x174a <HLCD_voidWriteChracter>
    187a:	ce 01       	movw	r24, r28
    187c:	01 96       	adiw	r24, 0x01	; 1
    187e:	9e 8b       	std	Y+22, r25	; 0x16
    1880:	8d 8b       	std	Y+21, r24	; 0x15
    1882:	8a e0       	ldi	r24, 0x0A	; 10
    1884:	ed 89       	ldd	r30, Y+21	; 0x15
    1886:	fe 89       	ldd	r31, Y+22	; 0x16
    1888:	11 92       	st	Z+, r1
    188a:	8a 95       	dec	r24
    188c:	e9 f7       	brne	.-6      	; 0x1888 <HLCD_voidWriteFloatNumber+0x7e>
    188e:	83 01       	movw	r16, r6
    1890:	72 01       	movw	r14, r4
    1892:	1e 01       	movw	r2, r28
    1894:	08 94       	sec
    1896:	21 1c       	adc	r2, r1
    1898:	31 1c       	adc	r3, r1
    189a:	17 c0       	rjmp	.+46     	; 0x18ca <HLCD_voidWriteFloatNumber+0xc0>
    189c:	c8 01       	movw	r24, r16
    189e:	b7 01       	movw	r22, r14
    18a0:	2a e0       	ldi	r18, 0x0A	; 10
    18a2:	30 e0       	ldi	r19, 0x00	; 0
    18a4:	40 e0       	ldi	r20, 0x00	; 0
    18a6:	50 e0       	ldi	r21, 0x00	; 0
    18a8:	0e 94 fe 12 	call	0x25fc	; 0x25fc <__udivmodsi4>
    18ac:	f1 01       	movw	r30, r2
    18ae:	61 93       	st	Z+, r22
    18b0:	1f 01       	movw	r2, r30
    18b2:	c8 01       	movw	r24, r16
    18b4:	b7 01       	movw	r22, r14
    18b6:	2a e0       	ldi	r18, 0x0A	; 10
    18b8:	30 e0       	ldi	r19, 0x00	; 0
    18ba:	40 e0       	ldi	r20, 0x00	; 0
    18bc:	50 e0       	ldi	r21, 0x00	; 0
    18be:	0e 94 fe 12 	call	0x25fc	; 0x25fc <__udivmodsi4>
    18c2:	c9 01       	movw	r24, r18
    18c4:	da 01       	movw	r26, r20
    18c6:	7c 01       	movw	r14, r24
    18c8:	8d 01       	movw	r16, r26
    18ca:	d2 2c       	mov	r13, r2
    18cc:	fd 89       	ldd	r31, Y+21	; 0x15
    18ce:	df 1a       	sub	r13, r31
    18d0:	e1 14       	cp	r14, r1
    18d2:	f1 04       	cpc	r15, r1
    18d4:	01 05       	cpc	r16, r1
    18d6:	11 05       	cpc	r17, r1
    18d8:	09 f7       	brne	.-62     	; 0x189c <HLCD_voidWriteFloatNumber+0x92>
    18da:	da 94       	dec	r13
    18dc:	8d 2d       	mov	r24, r13
    18de:	99 27       	eor	r25, r25
    18e0:	87 fd       	sbrc	r24, 7
    18e2:	90 95       	com	r25
    18e4:	d3 94       	inc	r13
    18e6:	8e 01       	movw	r16, r28
    18e8:	0f 5f       	subi	r16, 0xFF	; 255
    18ea:	1f 4f       	sbci	r17, 0xFF	; 255
    18ec:	08 0f       	add	r16, r24
    18ee:	19 1f       	adc	r17, r25
    18f0:	78 01       	movw	r14, r16
    18f2:	ed 18       	sub	r14, r13
    18f4:	f1 08       	sbc	r15, r1
    18f6:	07 c0       	rjmp	.+14     	; 0x1906 <HLCD_voidWriteFloatNumber+0xfc>
    18f8:	f8 01       	movw	r30, r16
    18fa:	80 81       	ld	r24, Z
    18fc:	80 5d       	subi	r24, 0xD0	; 208
    18fe:	0e 94 a5 0b 	call	0x174a	; 0x174a <HLCD_voidWriteChracter>
    1902:	01 50       	subi	r16, 0x01	; 1
    1904:	10 40       	sbci	r17, 0x00	; 0
    1906:	cd 2c       	mov	r12, r13
    1908:	0e 15       	cp	r16, r14
    190a:	1f 05       	cpc	r17, r15
    190c:	a9 f7       	brne	.-22     	; 0x18f8 <HLCD_voidWriteFloatNumber+0xee>
    190e:	9b e0       	ldi	r25, 0x0B	; 11
    1910:	29 2e       	mov	r2, r25
    1912:	31 2c       	mov	r3, r1
    1914:	2c 0e       	add	r2, r28
    1916:	3d 1e       	adc	r3, r29
    1918:	8a e0       	ldi	r24, 0x0A	; 10
    191a:	f1 01       	movw	r30, r2
    191c:	11 92       	st	Z+, r1
    191e:	8a 95       	dec	r24
    1920:	e9 f7       	brne	.-6      	; 0x191c <HLCD_voidWriteFloatNumber+0x112>
    1922:	c5 01       	movw	r24, r10
    1924:	b4 01       	movw	r22, r8
    1926:	20 e0       	ldi	r18, 0x00	; 0
    1928:	30 e0       	ldi	r19, 0x00	; 0
    192a:	40 e8       	ldi	r20, 0x80	; 128
    192c:	5f e3       	ldi	r21, 0x3F	; 63
    192e:	0e 94 f2 01 	call	0x3e4	; 0x3e4 <__addsf3>
    1932:	7b 01       	movw	r14, r22
    1934:	8c 01       	movw	r16, r24
    1936:	c3 01       	movw	r24, r6
    1938:	b2 01       	movw	r22, r4
    193a:	0e 94 cd 03 	call	0x79a	; 0x79a <__floatunsisf>
    193e:	9b 01       	movw	r18, r22
    1940:	ac 01       	movw	r20, r24
    1942:	c8 01       	movw	r24, r16
    1944:	b7 01       	movw	r22, r14
    1946:	0e 94 c1 01 	call	0x382	; 0x382 <__subsf3>
    194a:	20 e8       	ldi	r18, 0x80	; 128
    194c:	36 e9       	ldi	r19, 0x96	; 150
    194e:	48 e1       	ldi	r20, 0x18	; 24
    1950:	5b e4       	ldi	r21, 0x4B	; 75
    1952:	0e 94 1f 02 	call	0x43e	; 0x43e <__mulsf3>
    1956:	0e 94 49 00 	call	0x92	; 0x92 <__fixunssfsi>
    195a:	7b 01       	movw	r14, r22
    195c:	8c 01       	movw	r16, r24
    195e:	8e e2       	ldi	r24, 0x2E	; 46
    1960:	0e 94 a5 0b 	call	0x174a	; 0x174a <HLCD_voidWriteChracter>
    1964:	41 01       	movw	r8, r2
    1966:	51 01       	movw	r10, r2
    1968:	17 c0       	rjmp	.+46     	; 0x1998 <HLCD_voidWriteFloatNumber+0x18e>
    196a:	c8 01       	movw	r24, r16
    196c:	b7 01       	movw	r22, r14
    196e:	2a e0       	ldi	r18, 0x0A	; 10
    1970:	30 e0       	ldi	r19, 0x00	; 0
    1972:	40 e0       	ldi	r20, 0x00	; 0
    1974:	50 e0       	ldi	r21, 0x00	; 0
    1976:	0e 94 fe 12 	call	0x25fc	; 0x25fc <__udivmodsi4>
    197a:	f5 01       	movw	r30, r10
    197c:	61 93       	st	Z+, r22
    197e:	5f 01       	movw	r10, r30
    1980:	c8 01       	movw	r24, r16
    1982:	b7 01       	movw	r22, r14
    1984:	2a e0       	ldi	r18, 0x0A	; 10
    1986:	30 e0       	ldi	r19, 0x00	; 0
    1988:	40 e0       	ldi	r20, 0x00	; 0
    198a:	50 e0       	ldi	r21, 0x00	; 0
    198c:	0e 94 fe 12 	call	0x25fc	; 0x25fc <__udivmodsi4>
    1990:	c9 01       	movw	r24, r18
    1992:	da 01       	movw	r26, r20
    1994:	7c 01       	movw	r14, r24
    1996:	8d 01       	movw	r16, r26
    1998:	9a 2d       	mov	r25, r10
    199a:	92 19       	sub	r25, r2
    199c:	e1 14       	cp	r14, r1
    199e:	f1 04       	cpc	r15, r1
    19a0:	01 05       	cpc	r16, r1
    19a2:	11 05       	cpc	r17, r1
    19a4:	11 f7       	brne	.-60     	; 0x196a <HLCD_voidWriteFloatNumber+0x160>
    19a6:	4b e6       	ldi	r20, 0x6B	; 107
    19a8:	9e 01       	movw	r18, r28
    19aa:	2b 5e       	subi	r18, 0xEB	; 235
    19ac:	3f 4f       	sbci	r19, 0xFF	; 255
    19ae:	f4 01       	movw	r30, r8
    19b0:	80 81       	ld	r24, Z
    19b2:	88 23       	and	r24, r24
    19b4:	59 f0       	breq	.+22     	; 0x19cc <HLCD_voidWriteFloatNumber+0x1c2>
    19b6:	92 50       	subi	r25, 0x02	; 2
    19b8:	8e 01       	movw	r16, r28
    19ba:	05 5f       	subi	r16, 0xF5	; 245
    19bc:	1f 4f       	sbci	r17, 0xFF	; 255
    19be:	89 2f       	mov	r24, r25
    19c0:	99 27       	eor	r25, r25
    19c2:	87 fd       	sbrc	r24, 7
    19c4:	90 95       	com	r25
    19c6:	08 0f       	add	r16, r24
    19c8:	19 1f       	adc	r17, r25
    19ca:	0b c0       	rjmp	.+22     	; 0x19e2 <HLCD_voidWriteFloatNumber+0x1d8>
    19cc:	f4 01       	movw	r30, r8
    19ce:	41 93       	st	Z+, r20
    19d0:	4f 01       	movw	r8, r30
    19d2:	e2 17       	cp	r30, r18
    19d4:	f3 07       	cpc	r31, r19
    19d6:	59 f7       	brne	.-42     	; 0x19ae <HLCD_voidWriteFloatNumber+0x1a4>
    19d8:	ee cf       	rjmp	.-36     	; 0x19b6 <HLCD_voidWriteFloatNumber+0x1ac>
    19da:	80 5d       	subi	r24, 0xD0	; 208
    19dc:	0e 94 a5 0b 	call	0x174a	; 0x174a <HLCD_voidWriteChracter>
    19e0:	c3 94       	inc	r12
    19e2:	f8 01       	movw	r30, r16
    19e4:	80 81       	ld	r24, Z
    19e6:	8b 36       	cpi	r24, 0x6B	; 107
    19e8:	29 f0       	breq	.+10     	; 0x19f4 <HLCD_voidWriteFloatNumber+0x1ea>
    19ea:	01 50       	subi	r16, 0x01	; 1
    19ec:	10 40       	sbci	r17, 0x00	; 0
    19ee:	f7 e0       	ldi	r31, 0x07	; 7
    19f0:	cf 16       	cp	r12, r31
    19f2:	99 f7       	brne	.-26     	; 0x19da <HLCD_voidWriteFloatNumber+0x1d0>
    19f4:	66 96       	adiw	r28, 0x16	; 22
    19f6:	0f b6       	in	r0, 0x3f	; 63
    19f8:	f8 94       	cli
    19fa:	de bf       	out	0x3e, r29	; 62
    19fc:	0f be       	out	0x3f, r0	; 63
    19fe:	cd bf       	out	0x3d, r28	; 61
    1a00:	cf 91       	pop	r28
    1a02:	df 91       	pop	r29
    1a04:	1f 91       	pop	r17
    1a06:	0f 91       	pop	r16
    1a08:	ff 90       	pop	r15
    1a0a:	ef 90       	pop	r14
    1a0c:	df 90       	pop	r13
    1a0e:	cf 90       	pop	r12
    1a10:	bf 90       	pop	r11
    1a12:	af 90       	pop	r10
    1a14:	9f 90       	pop	r9
    1a16:	8f 90       	pop	r8
    1a18:	7f 90       	pop	r7
    1a1a:	6f 90       	pop	r6
    1a1c:	5f 90       	pop	r5
    1a1e:	4f 90       	pop	r4
    1a20:	3f 90       	pop	r3
    1a22:	2f 90       	pop	r2
    1a24:	08 95       	ret

00001a26 <HLCD_voidWriteIntNumber>:
    1a26:	af 92       	push	r10
    1a28:	bf 92       	push	r11
    1a2a:	cf 92       	push	r12
    1a2c:	df 92       	push	r13
    1a2e:	ef 92       	push	r14
    1a30:	ff 92       	push	r15
    1a32:	0f 93       	push	r16
    1a34:	1f 93       	push	r17
    1a36:	df 93       	push	r29
    1a38:	cf 93       	push	r28
    1a3a:	cd b7       	in	r28, 0x3d	; 61
    1a3c:	de b7       	in	r29, 0x3e	; 62
    1a3e:	2a 97       	sbiw	r28, 0x0a	; 10
    1a40:	0f b6       	in	r0, 0x3f	; 63
    1a42:	f8 94       	cli
    1a44:	de bf       	out	0x3e, r29	; 62
    1a46:	0f be       	out	0x3f, r0	; 63
    1a48:	cd bf       	out	0x3d, r28	; 61
    1a4a:	7b 01       	movw	r14, r22
    1a4c:	8c 01       	movw	r16, r24
    1a4e:	97 ff       	sbrs	r25, 7
    1a50:	16 c0       	rjmp	.+44     	; 0x1a7e <HLCD_voidWriteIntNumber+0x58>
    1a52:	10 95       	com	r17
    1a54:	00 95       	com	r16
    1a56:	f0 94       	com	r15
    1a58:	e0 94       	com	r14
    1a5a:	e1 1c       	adc	r14, r1
    1a5c:	f1 1c       	adc	r15, r1
    1a5e:	01 1d       	adc	r16, r1
    1a60:	11 1d       	adc	r17, r1
    1a62:	8d e2       	ldi	r24, 0x2D	; 45
    1a64:	0e 94 a5 0b 	call	0x174a	; 0x174a <HLCD_voidWriteChracter>
    1a68:	5e 01       	movw	r10, r28
    1a6a:	08 94       	sec
    1a6c:	a1 1c       	adc	r10, r1
    1a6e:	b1 1c       	adc	r11, r1
    1a70:	8a e0       	ldi	r24, 0x0A	; 10
    1a72:	f5 01       	movw	r30, r10
    1a74:	11 92       	st	Z+, r1
    1a76:	8a 95       	dec	r24
    1a78:	e9 f7       	brne	.-6      	; 0x1a74 <HLCD_voidWriteIntNumber+0x4e>
    1a7a:	65 01       	movw	r12, r10
    1a7c:	1e c0       	rjmp	.+60     	; 0x1aba <HLCD_voidWriteIntNumber+0x94>
    1a7e:	61 15       	cp	r22, r1
    1a80:	71 05       	cpc	r23, r1
    1a82:	81 05       	cpc	r24, r1
    1a84:	91 05       	cpc	r25, r1
    1a86:	81 f7       	brne	.-32     	; 0x1a68 <HLCD_voidWriteIntNumber+0x42>
    1a88:	80 e3       	ldi	r24, 0x30	; 48
    1a8a:	ec cf       	rjmp	.-40     	; 0x1a64 <HLCD_voidWriteIntNumber+0x3e>
    1a8c:	c8 01       	movw	r24, r16
    1a8e:	b7 01       	movw	r22, r14
    1a90:	2a e0       	ldi	r18, 0x0A	; 10
    1a92:	30 e0       	ldi	r19, 0x00	; 0
    1a94:	40 e0       	ldi	r20, 0x00	; 0
    1a96:	50 e0       	ldi	r21, 0x00	; 0
    1a98:	0e 94 20 13 	call	0x2640	; 0x2640 <__divmodsi4>
    1a9c:	f6 01       	movw	r30, r12
    1a9e:	61 93       	st	Z+, r22
    1aa0:	6f 01       	movw	r12, r30
    1aa2:	c8 01       	movw	r24, r16
    1aa4:	b7 01       	movw	r22, r14
    1aa6:	2a e0       	ldi	r18, 0x0A	; 10
    1aa8:	30 e0       	ldi	r19, 0x00	; 0
    1aaa:	40 e0       	ldi	r20, 0x00	; 0
    1aac:	50 e0       	ldi	r21, 0x00	; 0
    1aae:	0e 94 20 13 	call	0x2640	; 0x2640 <__divmodsi4>
    1ab2:	c9 01       	movw	r24, r18
    1ab4:	da 01       	movw	r26, r20
    1ab6:	7c 01       	movw	r14, r24
    1ab8:	8d 01       	movw	r16, r26
    1aba:	2c 2d       	mov	r18, r12
    1abc:	2a 19       	sub	r18, r10
    1abe:	e1 14       	cp	r14, r1
    1ac0:	f1 04       	cpc	r15, r1
    1ac2:	01 05       	cpc	r16, r1
    1ac4:	11 05       	cpc	r17, r1
    1ac6:	11 f7       	brne	.-60     	; 0x1a8c <HLCD_voidWriteIntNumber+0x66>
    1ac8:	21 50       	subi	r18, 0x01	; 1
    1aca:	82 2f       	mov	r24, r18
    1acc:	99 27       	eor	r25, r25
    1ace:	87 fd       	sbrc	r24, 7
    1ad0:	90 95       	com	r25
    1ad2:	2f 5f       	subi	r18, 0xFF	; 255
    1ad4:	8e 01       	movw	r16, r28
    1ad6:	0f 5f       	subi	r16, 0xFF	; 255
    1ad8:	1f 4f       	sbci	r17, 0xFF	; 255
    1ada:	08 0f       	add	r16, r24
    1adc:	19 1f       	adc	r17, r25
    1ade:	78 01       	movw	r14, r16
    1ae0:	e2 1a       	sub	r14, r18
    1ae2:	f1 08       	sbc	r15, r1
    1ae4:	07 c0       	rjmp	.+14     	; 0x1af4 <HLCD_voidWriteIntNumber+0xce>
    1ae6:	f8 01       	movw	r30, r16
    1ae8:	80 81       	ld	r24, Z
    1aea:	80 5d       	subi	r24, 0xD0	; 208
    1aec:	0e 94 a5 0b 	call	0x174a	; 0x174a <HLCD_voidWriteChracter>
    1af0:	01 50       	subi	r16, 0x01	; 1
    1af2:	10 40       	sbci	r17, 0x00	; 0
    1af4:	0e 15       	cp	r16, r14
    1af6:	1f 05       	cpc	r17, r15
    1af8:	b1 f7       	brne	.-20     	; 0x1ae6 <HLCD_voidWriteIntNumber+0xc0>
    1afa:	2a 96       	adiw	r28, 0x0a	; 10
    1afc:	0f b6       	in	r0, 0x3f	; 63
    1afe:	f8 94       	cli
    1b00:	de bf       	out	0x3e, r29	; 62
    1b02:	0f be       	out	0x3f, r0	; 63
    1b04:	cd bf       	out	0x3d, r28	; 61
    1b06:	cf 91       	pop	r28
    1b08:	df 91       	pop	r29
    1b0a:	1f 91       	pop	r17
    1b0c:	0f 91       	pop	r16
    1b0e:	ff 90       	pop	r15
    1b10:	ef 90       	pop	r14
    1b12:	df 90       	pop	r13
    1b14:	cf 90       	pop	r12
    1b16:	bf 90       	pop	r11
    1b18:	af 90       	pop	r10
    1b1a:	08 95       	ret

00001b1c <HLCD_voidWriteString>:
    1b1c:	1f 93       	push	r17
    1b1e:	cf 93       	push	r28
    1b20:	df 93       	push	r29
    1b22:	ec 01       	movw	r28, r24
    1b24:	10 e0       	ldi	r17, 0x00	; 0
    1b26:	03 c0       	rjmp	.+6      	; 0x1b2e <HLCD_voidWriteString+0x12>
    1b28:	1f 5f       	subi	r17, 0xFF	; 255
    1b2a:	0e 94 a5 0b 	call	0x174a	; 0x174a <HLCD_voidWriteChracter>
    1b2e:	fe 01       	movw	r30, r28
    1b30:	e1 0f       	add	r30, r17
    1b32:	f1 1d       	adc	r31, r1
    1b34:	80 81       	ld	r24, Z
    1b36:	88 23       	and	r24, r24
    1b38:	b9 f7       	brne	.-18     	; 0x1b28 <HLCD_voidWriteString+0xc>
    1b3a:	df 91       	pop	r29
    1b3c:	cf 91       	pop	r28
    1b3e:	1f 91       	pop	r17
    1b40:	08 95       	ret

00001b42 <HLCD_voidWriteCmd>:
    1b42:	ef 92       	push	r14
    1b44:	ff 92       	push	r15
    1b46:	1f 93       	push	r17
    1b48:	18 2f       	mov	r17, r24
    1b4a:	80 e0       	ldi	r24, 0x00	; 0
    1b4c:	62 e0       	ldi	r22, 0x02	; 2
    1b4e:	40 e0       	ldi	r20, 0x00	; 0
    1b50:	0e 94 e8 09 	call	0x13d0	; 0x13d0 <MDIO_voidSetPinValue>
    1b54:	81 e0       	ldi	r24, 0x01	; 1
    1b56:	62 e0       	ldi	r22, 0x02	; 2
    1b58:	40 e0       	ldi	r20, 0x00	; 0
    1b5a:	0e 94 e8 09 	call	0x13d0	; 0x13d0 <MDIO_voidSetPinValue>
    1b5e:	41 2f       	mov	r20, r17
    1b60:	40 71       	andi	r20, 0x10	; 16
    1b62:	84 e0       	ldi	r24, 0x04	; 4
    1b64:	62 e0       	ldi	r22, 0x02	; 2
    1b66:	0e 94 e8 09 	call	0x13d0	; 0x13d0 <MDIO_voidSetPinValue>
    1b6a:	41 2f       	mov	r20, r17
    1b6c:	40 72       	andi	r20, 0x20	; 32
    1b6e:	85 e0       	ldi	r24, 0x05	; 5
    1b70:	62 e0       	ldi	r22, 0x02	; 2
    1b72:	0e 94 e8 09 	call	0x13d0	; 0x13d0 <MDIO_voidSetPinValue>
    1b76:	41 2f       	mov	r20, r17
    1b78:	40 74       	andi	r20, 0x40	; 64
    1b7a:	86 e0       	ldi	r24, 0x06	; 6
    1b7c:	62 e0       	ldi	r22, 0x02	; 2
    1b7e:	0e 94 e8 09 	call	0x13d0	; 0x13d0 <MDIO_voidSetPinValue>
    1b82:	41 2f       	mov	r20, r17
    1b84:	40 78       	andi	r20, 0x80	; 128
    1b86:	87 e0       	ldi	r24, 0x07	; 7
    1b88:	62 e0       	ldi	r22, 0x02	; 2
    1b8a:	0e 94 e8 09 	call	0x13d0	; 0x13d0 <MDIO_voidSetPinValue>
    1b8e:	82 e0       	ldi	r24, 0x02	; 2
    1b90:	62 e0       	ldi	r22, 0x02	; 2
    1b92:	41 e0       	ldi	r20, 0x01	; 1
    1b94:	0e 94 e8 09 	call	0x13d0	; 0x13d0 <MDIO_voidSetPinValue>
    1b98:	82 e0       	ldi	r24, 0x02	; 2
    1b9a:	62 e0       	ldi	r22, 0x02	; 2
    1b9c:	40 e0       	ldi	r20, 0x00	; 0
    1b9e:	0e 94 e8 09 	call	0x13d0	; 0x13d0 <MDIO_voidSetPinValue>
    1ba2:	20 e1       	ldi	r18, 0x10	; 16
    1ba4:	e2 2e       	mov	r14, r18
    1ba6:	27 e2       	ldi	r18, 0x27	; 39
    1ba8:	f2 2e       	mov	r15, r18
    1baa:	c7 01       	movw	r24, r14
    1bac:	01 97       	sbiw	r24, 0x01	; 1
    1bae:	f1 f7       	brne	.-4      	; 0x1bac <HLCD_voidWriteCmd+0x6a>
    1bb0:	41 2f       	mov	r20, r17
    1bb2:	41 70       	andi	r20, 0x01	; 1
    1bb4:	84 e0       	ldi	r24, 0x04	; 4
    1bb6:	62 e0       	ldi	r22, 0x02	; 2
    1bb8:	0e 94 e8 09 	call	0x13d0	; 0x13d0 <MDIO_voidSetPinValue>
    1bbc:	41 2f       	mov	r20, r17
    1bbe:	42 70       	andi	r20, 0x02	; 2
    1bc0:	85 e0       	ldi	r24, 0x05	; 5
    1bc2:	62 e0       	ldi	r22, 0x02	; 2
    1bc4:	0e 94 e8 09 	call	0x13d0	; 0x13d0 <MDIO_voidSetPinValue>
    1bc8:	41 2f       	mov	r20, r17
    1bca:	44 70       	andi	r20, 0x04	; 4
    1bcc:	86 e0       	ldi	r24, 0x06	; 6
    1bce:	62 e0       	ldi	r22, 0x02	; 2
    1bd0:	0e 94 e8 09 	call	0x13d0	; 0x13d0 <MDIO_voidSetPinValue>
    1bd4:	18 70       	andi	r17, 0x08	; 8
    1bd6:	87 e0       	ldi	r24, 0x07	; 7
    1bd8:	62 e0       	ldi	r22, 0x02	; 2
    1bda:	41 2f       	mov	r20, r17
    1bdc:	0e 94 e8 09 	call	0x13d0	; 0x13d0 <MDIO_voidSetPinValue>
    1be0:	82 e0       	ldi	r24, 0x02	; 2
    1be2:	62 e0       	ldi	r22, 0x02	; 2
    1be4:	41 e0       	ldi	r20, 0x01	; 1
    1be6:	0e 94 e8 09 	call	0x13d0	; 0x13d0 <MDIO_voidSetPinValue>
    1bea:	82 e0       	ldi	r24, 0x02	; 2
    1bec:	62 e0       	ldi	r22, 0x02	; 2
    1bee:	40 e0       	ldi	r20, 0x00	; 0
    1bf0:	0e 94 e8 09 	call	0x13d0	; 0x13d0 <MDIO_voidSetPinValue>
    1bf4:	c7 01       	movw	r24, r14
    1bf6:	01 97       	sbiw	r24, 0x01	; 1
    1bf8:	f1 f7       	brne	.-4      	; 0x1bf6 <HLCD_voidWriteCmd+0xb4>
    1bfa:	1f 91       	pop	r17
    1bfc:	ff 90       	pop	r15
    1bfe:	ef 90       	pop	r14
    1c00:	08 95       	ret

00001c02 <HLCD_voidGoTo>:
    1c02:	88 23       	and	r24, r24
    1c04:	19 f0       	breq	.+6      	; 0x1c0c <HLCD_voidGoTo+0xa>
    1c06:	81 30       	cpi	r24, 0x01	; 1
    1c08:	51 f4       	brne	.+20     	; 0x1c1e <HLCD_voidGoTo+0x1c>
    1c0a:	05 c0       	rjmp	.+10     	; 0x1c16 <HLCD_voidGoTo+0x14>
    1c0c:	86 2f       	mov	r24, r22
    1c0e:	80 58       	subi	r24, 0x80	; 128
    1c10:	0e 94 a1 0d 	call	0x1b42	; 0x1b42 <HLCD_voidWriteCmd>
    1c14:	08 95       	ret
    1c16:	86 2f       	mov	r24, r22
    1c18:	81 54       	subi	r24, 0x41	; 65
    1c1a:	0e 94 a1 0d 	call	0x1b42	; 0x1b42 <HLCD_voidWriteCmd>
    1c1e:	08 95       	ret

00001c20 <HLCD_voidClear>:
    1c20:	81 e0       	ldi	r24, 0x01	; 1
    1c22:	0e 94 a1 0d 	call	0x1b42	; 0x1b42 <HLCD_voidWriteCmd>
    1c26:	80 ea       	ldi	r24, 0xA0	; 160
    1c28:	9f e0       	ldi	r25, 0x0F	; 15
    1c2a:	01 97       	sbiw	r24, 0x01	; 1
    1c2c:	f1 f7       	brne	.-4      	; 0x1c2a <HLCD_voidClear+0xa>
    1c2e:	08 95       	ret

00001c30 <HLCD_voidInit>:
    1c30:	0f 93       	push	r16
    1c32:	1f 93       	push	r17
    1c34:	82 e0       	ldi	r24, 0x02	; 2
    1c36:	6f ef       	ldi	r22, 0xFF	; 255
    1c38:	0e 94 bb 0a 	call	0x1576	; 0x1576 <MDIO_voidSetPortMode>
    1c3c:	80 e0       	ldi	r24, 0x00	; 0
    1c3e:	62 e0       	ldi	r22, 0x02	; 2
    1c40:	41 e0       	ldi	r20, 0x01	; 1
    1c42:	0e 94 6e 09 	call	0x12dc	; 0x12dc <MDIO_voidSetPinMode>
    1c46:	81 e0       	ldi	r24, 0x01	; 1
    1c48:	62 e0       	ldi	r22, 0x02	; 2
    1c4a:	41 e0       	ldi	r20, 0x01	; 1
    1c4c:	0e 94 6e 09 	call	0x12dc	; 0x12dc <MDIO_voidSetPinMode>
    1c50:	82 e0       	ldi	r24, 0x02	; 2
    1c52:	62 e0       	ldi	r22, 0x02	; 2
    1c54:	41 e0       	ldi	r20, 0x01	; 1
    1c56:	0e 94 6e 09 	call	0x12dc	; 0x12dc <MDIO_voidSetPinMode>
    1c5a:	80 e6       	ldi	r24, 0x60	; 96
    1c5c:	9a ee       	ldi	r25, 0xEA	; 234
    1c5e:	01 97       	sbiw	r24, 0x01	; 1
    1c60:	f1 f7       	brne	.-4      	; 0x1c5e <HLCD_voidInit+0x2e>
    1c62:	83 e3       	ldi	r24, 0x33	; 51
    1c64:	0e 94 a1 0d 	call	0x1b42	; 0x1b42 <HLCD_voidWriteCmd>
    1c68:	82 e3       	ldi	r24, 0x32	; 50
    1c6a:	0e 94 a1 0d 	call	0x1b42	; 0x1b42 <HLCD_voidWriteCmd>
    1c6e:	88 e2       	ldi	r24, 0x28	; 40
    1c70:	0e 94 a1 0d 	call	0x1b42	; 0x1b42 <HLCD_voidWriteCmd>
    1c74:	00 ed       	ldi	r16, 0xD0	; 208
    1c76:	17 e0       	ldi	r17, 0x07	; 7
    1c78:	c8 01       	movw	r24, r16
    1c7a:	01 97       	sbiw	r24, 0x01	; 1
    1c7c:	f1 f7       	brne	.-4      	; 0x1c7a <HLCD_voidInit+0x4a>
    1c7e:	8c e0       	ldi	r24, 0x0C	; 12
    1c80:	0e 94 a1 0d 	call	0x1b42	; 0x1b42 <HLCD_voidWriteCmd>
    1c84:	c8 01       	movw	r24, r16
    1c86:	01 97       	sbiw	r24, 0x01	; 1
    1c88:	f1 f7       	brne	.-4      	; 0x1c86 <HLCD_voidInit+0x56>
    1c8a:	81 e0       	ldi	r24, 0x01	; 1
    1c8c:	0e 94 a1 0d 	call	0x1b42	; 0x1b42 <HLCD_voidWriteCmd>
    1c90:	00 ea       	ldi	r16, 0xA0	; 160
    1c92:	1f e0       	ldi	r17, 0x0F	; 15
    1c94:	c8 01       	movw	r24, r16
    1c96:	01 97       	sbiw	r24, 0x01	; 1
    1c98:	f1 f7       	brne	.-4      	; 0x1c96 <HLCD_voidInit+0x66>
    1c9a:	86 e0       	ldi	r24, 0x06	; 6
    1c9c:	0e 94 a1 0d 	call	0x1b42	; 0x1b42 <HLCD_voidWriteCmd>
    1ca0:	c8 01       	movw	r24, r16
    1ca2:	01 97       	sbiw	r24, 0x01	; 1
    1ca4:	f1 f7       	brne	.-4      	; 0x1ca2 <HLCD_voidInit+0x72>
    1ca6:	1f 91       	pop	r17
    1ca8:	0f 91       	pop	r16
    1caa:	08 95       	ret

00001cac <KPD_U8GetPressedKey>:
    1cac:	cf 92       	push	r12
    1cae:	df 92       	push	r13
    1cb0:	ef 92       	push	r14
    1cb2:	ff 92       	push	r15
    1cb4:	0f 93       	push	r16
    1cb6:	1f 93       	push	r17
    1cb8:	df 93       	push	r29
    1cba:	cf 93       	push	r28
    1cbc:	cd b7       	in	r28, 0x3d	; 61
    1cbe:	de b7       	in	r29, 0x3e	; 62
    1cc0:	2f 97       	sbiw	r28, 0x0f	; 15
    1cc2:	0f b6       	in	r0, 0x3f	; 63
    1cc4:	f8 94       	cli
    1cc6:	de bf       	out	0x3e, r29	; 62
    1cc8:	0f be       	out	0x3f, r0	; 63
    1cca:	cd bf       	out	0x3d, r28	; 61
    1ccc:	de 01       	movw	r26, r28
    1cce:	17 96       	adiw	r26, 0x07	; 7
    1cd0:	e2 e3       	ldi	r30, 0x32	; 50
    1cd2:	f2 e0       	ldi	r31, 0x02	; 2
    1cd4:	89 e0       	ldi	r24, 0x09	; 9
    1cd6:	01 90       	ld	r0, Z+
    1cd8:	0d 92       	st	X+, r0
    1cda:	81 50       	subi	r24, 0x01	; 1
    1cdc:	e1 f7       	brne	.-8      	; 0x1cd6 <KPD_U8GetPressedKey+0x2a>
    1cde:	de 01       	movw	r26, r28
    1ce0:	11 96       	adiw	r26, 0x01	; 1
    1ce2:	ef e2       	ldi	r30, 0x2F	; 47
    1ce4:	f2 e0       	ldi	r31, 0x02	; 2
    1ce6:	83 e0       	ldi	r24, 0x03	; 3
    1ce8:	01 90       	ld	r0, Z+
    1cea:	0d 92       	st	X+, r0
    1cec:	81 50       	subi	r24, 0x01	; 1
    1cee:	e1 f7       	brne	.-8      	; 0x1ce8 <KPD_U8GetPressedKey+0x3c>
    1cf0:	de 01       	movw	r26, r28
    1cf2:	14 96       	adiw	r26, 0x04	; 4
    1cf4:	ec e2       	ldi	r30, 0x2C	; 44
    1cf6:	f2 e0       	ldi	r31, 0x02	; 2
    1cf8:	83 e0       	ldi	r24, 0x03	; 3
    1cfa:	01 90       	ld	r0, Z+
    1cfc:	0d 92       	st	X+, r0
    1cfe:	81 50       	subi	r24, 0x01	; 1
    1d00:	e1 f7       	brne	.-8      	; 0x1cfa <KPD_U8GetPressedKey+0x4e>
    1d02:	00 e0       	ldi	r16, 0x00	; 0
    1d04:	10 e0       	ldi	r17, 0x00	; 0
    1d06:	6e 01       	movw	r12, r28
    1d08:	08 94       	sec
    1d0a:	c1 1c       	adc	r12, r1
    1d0c:	d1 1c       	adc	r13, r1
    1d0e:	f6 01       	movw	r30, r12
    1d10:	e0 0f       	add	r30, r16
    1d12:	f1 1f       	adc	r31, r17
    1d14:	e0 80       	ld	r14, Z
    1d16:	8e 2d       	mov	r24, r14
    1d18:	60 e0       	ldi	r22, 0x00	; 0
    1d1a:	40 e0       	ldi	r20, 0x00	; 0
    1d1c:	0e 94 e8 09 	call	0x13d0	; 0x13d0 <MDIO_voidSetPinValue>
    1d20:	fc 80       	ldd	r15, Y+4	; 0x04
    1d22:	8f 2d       	mov	r24, r15
    1d24:	60 e0       	ldi	r22, 0x00	; 0
    1d26:	0e 94 9c 0a 	call	0x1538	; 0x1538 <MDIO_u8GetPinValue>
    1d2a:	88 23       	and	r24, r24
    1d2c:	19 f4       	brne	.+6      	; 0x1d34 <KPD_U8GetPressedKey+0x88>
    1d2e:	20 e0       	ldi	r18, 0x00	; 0
    1d30:	30 e0       	ldi	r19, 0x00	; 0
    1d32:	13 c0       	rjmp	.+38     	; 0x1d5a <KPD_U8GetPressedKey+0xae>
    1d34:	fd 80       	ldd	r15, Y+5	; 0x05
    1d36:	8f 2d       	mov	r24, r15
    1d38:	60 e0       	ldi	r22, 0x00	; 0
    1d3a:	0e 94 9c 0a 	call	0x1538	; 0x1538 <MDIO_u8GetPinValue>
    1d3e:	88 23       	and	r24, r24
    1d40:	19 f4       	brne	.+6      	; 0x1d48 <KPD_U8GetPressedKey+0x9c>
    1d42:	21 e0       	ldi	r18, 0x01	; 1
    1d44:	30 e0       	ldi	r19, 0x00	; 0
    1d46:	09 c0       	rjmp	.+18     	; 0x1d5a <KPD_U8GetPressedKey+0xae>
    1d48:	fe 80       	ldd	r15, Y+6	; 0x06
    1d4a:	8f 2d       	mov	r24, r15
    1d4c:	60 e0       	ldi	r22, 0x00	; 0
    1d4e:	0e 94 9c 0a 	call	0x1538	; 0x1538 <MDIO_u8GetPinValue>
    1d52:	88 23       	and	r24, r24
    1d54:	a9 f4       	brne	.+42     	; 0x1d80 <KPD_U8GetPressedKey+0xd4>
    1d56:	22 e0       	ldi	r18, 0x02	; 2
    1d58:	30 e0       	ldi	r19, 0x00	; 0
    1d5a:	c9 01       	movw	r24, r18
    1d5c:	88 0f       	add	r24, r24
    1d5e:	99 1f       	adc	r25, r25
    1d60:	82 0f       	add	r24, r18
    1d62:	93 1f       	adc	r25, r19
    1d64:	fe 01       	movw	r30, r28
    1d66:	31 96       	adiw	r30, 0x01	; 1
    1d68:	e8 0f       	add	r30, r24
    1d6a:	f9 1f       	adc	r31, r25
    1d6c:	e0 0f       	add	r30, r16
    1d6e:	f1 1f       	adc	r31, r17
    1d70:	16 81       	ldd	r17, Z+6	; 0x06
    1d72:	8f 2d       	mov	r24, r15
    1d74:	60 e0       	ldi	r22, 0x00	; 0
    1d76:	0e 94 9c 0a 	call	0x1538	; 0x1538 <MDIO_u8GetPinValue>
    1d7a:	88 23       	and	r24, r24
    1d7c:	d1 f3       	breq	.-12     	; 0x1d72 <KPD_U8GetPressedKey+0xc6>
    1d7e:	0c c0       	rjmp	.+24     	; 0x1d98 <KPD_U8GetPressedKey+0xec>
    1d80:	8e 2d       	mov	r24, r14
    1d82:	60 e0       	ldi	r22, 0x00	; 0
    1d84:	41 e0       	ldi	r20, 0x01	; 1
    1d86:	0e 94 e8 09 	call	0x13d0	; 0x13d0 <MDIO_voidSetPinValue>
    1d8a:	0f 5f       	subi	r16, 0xFF	; 255
    1d8c:	1f 4f       	sbci	r17, 0xFF	; 255
    1d8e:	03 30       	cpi	r16, 0x03	; 3
    1d90:	11 05       	cpc	r17, r1
    1d92:	09 f0       	breq	.+2      	; 0x1d96 <KPD_U8GetPressedKey+0xea>
    1d94:	bc cf       	rjmp	.-136    	; 0x1d0e <KPD_U8GetPressedKey+0x62>
    1d96:	1f ef       	ldi	r17, 0xFF	; 255
    1d98:	81 2f       	mov	r24, r17
    1d9a:	2f 96       	adiw	r28, 0x0f	; 15
    1d9c:	0f b6       	in	r0, 0x3f	; 63
    1d9e:	f8 94       	cli
    1da0:	de bf       	out	0x3e, r29	; 62
    1da2:	0f be       	out	0x3f, r0	; 63
    1da4:	cd bf       	out	0x3d, r28	; 61
    1da6:	cf 91       	pop	r28
    1da8:	df 91       	pop	r29
    1daa:	1f 91       	pop	r17
    1dac:	0f 91       	pop	r16
    1dae:	ff 90       	pop	r15
    1db0:	ef 90       	pop	r14
    1db2:	df 90       	pop	r13
    1db4:	cf 90       	pop	r12
    1db6:	08 95       	ret

00001db8 <HBUZ_voidLong>:
    1db8:	41 e0       	ldi	r20, 0x01	; 1
    1dba:	0e 94 e8 09 	call	0x13d0	; 0x13d0 <MDIO_voidSetPinValue>
    1dbe:	08 95       	ret

00001dc0 <HBUZ_voidTriple>:
    1dc0:	0f 93       	push	r16
    1dc2:	1f 93       	push	r17
    1dc4:	18 2f       	mov	r17, r24
    1dc6:	06 2f       	mov	r16, r22
    1dc8:	41 e0       	ldi	r20, 0x01	; 1
    1dca:	0e 94 e8 09 	call	0x13d0	; 0x13d0 <MDIO_voidSetPinValue>
    1dce:	80 ed       	ldi	r24, 0xD0	; 208
    1dd0:	97 e0       	ldi	r25, 0x07	; 7
    1dd2:	28 ec       	ldi	r18, 0xC8	; 200
    1dd4:	30 e0       	ldi	r19, 0x00	; 0
    1dd6:	f9 01       	movw	r30, r18
    1dd8:	31 97       	sbiw	r30, 0x01	; 1
    1dda:	f1 f7       	brne	.-4      	; 0x1dd8 <HBUZ_voidTriple+0x18>
    1ddc:	01 97       	sbiw	r24, 0x01	; 1
    1dde:	d9 f7       	brne	.-10     	; 0x1dd6 <HBUZ_voidTriple+0x16>
    1de0:	81 2f       	mov	r24, r17
    1de2:	60 2f       	mov	r22, r16
    1de4:	40 e0       	ldi	r20, 0x00	; 0
    1de6:	0e 94 e8 09 	call	0x13d0	; 0x13d0 <MDIO_voidSetPinValue>
    1dea:	80 ed       	ldi	r24, 0xD0	; 208
    1dec:	97 e0       	ldi	r25, 0x07	; 7
    1dee:	28 ec       	ldi	r18, 0xC8	; 200
    1df0:	30 e0       	ldi	r19, 0x00	; 0
    1df2:	f9 01       	movw	r30, r18
    1df4:	31 97       	sbiw	r30, 0x01	; 1
    1df6:	f1 f7       	brne	.-4      	; 0x1df4 <HBUZ_voidTriple+0x34>
    1df8:	01 97       	sbiw	r24, 0x01	; 1
    1dfa:	d9 f7       	brne	.-10     	; 0x1df2 <HBUZ_voidTriple+0x32>
    1dfc:	81 2f       	mov	r24, r17
    1dfe:	60 2f       	mov	r22, r16
    1e00:	41 e0       	ldi	r20, 0x01	; 1
    1e02:	0e 94 e8 09 	call	0x13d0	; 0x13d0 <MDIO_voidSetPinValue>
    1e06:	80 ed       	ldi	r24, 0xD0	; 208
    1e08:	97 e0       	ldi	r25, 0x07	; 7
    1e0a:	28 ec       	ldi	r18, 0xC8	; 200
    1e0c:	30 e0       	ldi	r19, 0x00	; 0
    1e0e:	f9 01       	movw	r30, r18
    1e10:	31 97       	sbiw	r30, 0x01	; 1
    1e12:	f1 f7       	brne	.-4      	; 0x1e10 <HBUZ_voidTriple+0x50>
    1e14:	01 97       	sbiw	r24, 0x01	; 1
    1e16:	d9 f7       	brne	.-10     	; 0x1e0e <HBUZ_voidTriple+0x4e>
    1e18:	81 2f       	mov	r24, r17
    1e1a:	60 2f       	mov	r22, r16
    1e1c:	40 e0       	ldi	r20, 0x00	; 0
    1e1e:	0e 94 e8 09 	call	0x13d0	; 0x13d0 <MDIO_voidSetPinValue>
    1e22:	80 ed       	ldi	r24, 0xD0	; 208
    1e24:	97 e0       	ldi	r25, 0x07	; 7
    1e26:	28 ec       	ldi	r18, 0xC8	; 200
    1e28:	30 e0       	ldi	r19, 0x00	; 0
    1e2a:	f9 01       	movw	r30, r18
    1e2c:	31 97       	sbiw	r30, 0x01	; 1
    1e2e:	f1 f7       	brne	.-4      	; 0x1e2c <HBUZ_voidTriple+0x6c>
    1e30:	01 97       	sbiw	r24, 0x01	; 1
    1e32:	d9 f7       	brne	.-10     	; 0x1e2a <HBUZ_voidTriple+0x6a>
    1e34:	81 2f       	mov	r24, r17
    1e36:	60 2f       	mov	r22, r16
    1e38:	41 e0       	ldi	r20, 0x01	; 1
    1e3a:	0e 94 e8 09 	call	0x13d0	; 0x13d0 <MDIO_voidSetPinValue>
    1e3e:	80 ed       	ldi	r24, 0xD0	; 208
    1e40:	97 e0       	ldi	r25, 0x07	; 7
    1e42:	28 ec       	ldi	r18, 0xC8	; 200
    1e44:	30 e0       	ldi	r19, 0x00	; 0
    1e46:	f9 01       	movw	r30, r18
    1e48:	31 97       	sbiw	r30, 0x01	; 1
    1e4a:	f1 f7       	brne	.-4      	; 0x1e48 <HBUZ_voidTriple+0x88>
    1e4c:	01 97       	sbiw	r24, 0x01	; 1
    1e4e:	d9 f7       	brne	.-10     	; 0x1e46 <HBUZ_voidTriple+0x86>
    1e50:	81 2f       	mov	r24, r17
    1e52:	60 2f       	mov	r22, r16
    1e54:	40 e0       	ldi	r20, 0x00	; 0
    1e56:	0e 94 e8 09 	call	0x13d0	; 0x13d0 <MDIO_voidSetPinValue>
    1e5a:	1f 91       	pop	r17
    1e5c:	0f 91       	pop	r16
    1e5e:	08 95       	ret

00001e60 <HBUZ_voidTwice>:
    1e60:	0f 93       	push	r16
    1e62:	1f 93       	push	r17
    1e64:	18 2f       	mov	r17, r24
    1e66:	06 2f       	mov	r16, r22
    1e68:	41 e0       	ldi	r20, 0x01	; 1
    1e6a:	0e 94 e8 09 	call	0x13d0	; 0x13d0 <MDIO_voidSetPinValue>
    1e6e:	80 ed       	ldi	r24, 0xD0	; 208
    1e70:	97 e0       	ldi	r25, 0x07	; 7
    1e72:	28 ec       	ldi	r18, 0xC8	; 200
    1e74:	30 e0       	ldi	r19, 0x00	; 0
    1e76:	f9 01       	movw	r30, r18
    1e78:	31 97       	sbiw	r30, 0x01	; 1
    1e7a:	f1 f7       	brne	.-4      	; 0x1e78 <HBUZ_voidTwice+0x18>
    1e7c:	01 97       	sbiw	r24, 0x01	; 1
    1e7e:	d9 f7       	brne	.-10     	; 0x1e76 <HBUZ_voidTwice+0x16>
    1e80:	81 2f       	mov	r24, r17
    1e82:	60 2f       	mov	r22, r16
    1e84:	40 e0       	ldi	r20, 0x00	; 0
    1e86:	0e 94 e8 09 	call	0x13d0	; 0x13d0 <MDIO_voidSetPinValue>
    1e8a:	80 ed       	ldi	r24, 0xD0	; 208
    1e8c:	97 e0       	ldi	r25, 0x07	; 7
    1e8e:	28 ec       	ldi	r18, 0xC8	; 200
    1e90:	30 e0       	ldi	r19, 0x00	; 0
    1e92:	f9 01       	movw	r30, r18
    1e94:	31 97       	sbiw	r30, 0x01	; 1
    1e96:	f1 f7       	brne	.-4      	; 0x1e94 <HBUZ_voidTwice+0x34>
    1e98:	01 97       	sbiw	r24, 0x01	; 1
    1e9a:	d9 f7       	brne	.-10     	; 0x1e92 <HBUZ_voidTwice+0x32>
    1e9c:	81 2f       	mov	r24, r17
    1e9e:	60 2f       	mov	r22, r16
    1ea0:	41 e0       	ldi	r20, 0x01	; 1
    1ea2:	0e 94 e8 09 	call	0x13d0	; 0x13d0 <MDIO_voidSetPinValue>
    1ea6:	80 ed       	ldi	r24, 0xD0	; 208
    1ea8:	97 e0       	ldi	r25, 0x07	; 7
    1eaa:	28 ec       	ldi	r18, 0xC8	; 200
    1eac:	30 e0       	ldi	r19, 0x00	; 0
    1eae:	f9 01       	movw	r30, r18
    1eb0:	31 97       	sbiw	r30, 0x01	; 1
    1eb2:	f1 f7       	brne	.-4      	; 0x1eb0 <HBUZ_voidTwice+0x50>
    1eb4:	01 97       	sbiw	r24, 0x01	; 1
    1eb6:	d9 f7       	brne	.-10     	; 0x1eae <HBUZ_voidTwice+0x4e>
    1eb8:	81 2f       	mov	r24, r17
    1eba:	60 2f       	mov	r22, r16
    1ebc:	40 e0       	ldi	r20, 0x00	; 0
    1ebe:	0e 94 e8 09 	call	0x13d0	; 0x13d0 <MDIO_voidSetPinValue>
    1ec2:	1f 91       	pop	r17
    1ec4:	0f 91       	pop	r16
    1ec6:	08 95       	ret

00001ec8 <HBUZ_voidOnce>:
    1ec8:	0f 93       	push	r16
    1eca:	1f 93       	push	r17
    1ecc:	18 2f       	mov	r17, r24
    1ece:	06 2f       	mov	r16, r22
    1ed0:	41 e0       	ldi	r20, 0x01	; 1
    1ed2:	0e 94 e8 09 	call	0x13d0	; 0x13d0 <MDIO_voidSetPinValue>
    1ed6:	80 ed       	ldi	r24, 0xD0	; 208
    1ed8:	97 e0       	ldi	r25, 0x07	; 7
    1eda:	28 ec       	ldi	r18, 0xC8	; 200
    1edc:	30 e0       	ldi	r19, 0x00	; 0
    1ede:	f9 01       	movw	r30, r18
    1ee0:	31 97       	sbiw	r30, 0x01	; 1
    1ee2:	f1 f7       	brne	.-4      	; 0x1ee0 <HBUZ_voidOnce+0x18>
    1ee4:	01 97       	sbiw	r24, 0x01	; 1
    1ee6:	d9 f7       	brne	.-10     	; 0x1ede <HBUZ_voidOnce+0x16>
    1ee8:	81 2f       	mov	r24, r17
    1eea:	60 2f       	mov	r22, r16
    1eec:	40 e0       	ldi	r20, 0x00	; 0
    1eee:	0e 94 e8 09 	call	0x13d0	; 0x13d0 <MDIO_voidSetPinValue>
    1ef2:	1f 91       	pop	r17
    1ef4:	0f 91       	pop	r16
    1ef6:	08 95       	ret

00001ef8 <HBUZ_voidOff>:
    1ef8:	40 e0       	ldi	r20, 0x00	; 0
    1efa:	0e 94 e8 09 	call	0x13d0	; 0x13d0 <MDIO_voidSetPinValue>
    1efe:	08 95       	ret

00001f00 <HBUZ_voidOn>:
    1f00:	41 e0       	ldi	r20, 0x01	; 1
    1f02:	0e 94 e8 09 	call	0x13d0	; 0x13d0 <MDIO_voidSetPinValue>
    1f06:	08 95       	ret

00001f08 <HBUZ_voidToggle>:
    1f08:	0e 94 62 0a 	call	0x14c4	; 0x14c4 <MDIO_voidTogPinValue>
    1f0c:	08 95       	ret

00001f0e <HBUZ_voidInit>:
    1f0e:	0f 93       	push	r16
    1f10:	1f 93       	push	r17
    1f12:	18 2f       	mov	r17, r24
    1f14:	06 2f       	mov	r16, r22
    1f16:	41 e0       	ldi	r20, 0x01	; 1
    1f18:	0e 94 6e 09 	call	0x12dc	; 0x12dc <MDIO_voidSetPinMode>
    1f1c:	81 2f       	mov	r24, r17
    1f1e:	60 2f       	mov	r22, r16
    1f20:	40 e0       	ldi	r20, 0x00	; 0
    1f22:	0e 94 e8 09 	call	0x13d0	; 0x13d0 <MDIO_voidSetPinValue>
    1f26:	1f 91       	pop	r17
    1f28:	0f 91       	pop	r16
    1f2a:	08 95       	ret

00001f2c <OpenSystem>:
    1f2c:	ff 92       	push	r15
    1f2e:	0f 93       	push	r16
    1f30:	1f 93       	push	r17
    1f32:	cf 93       	push	r28
    1f34:	df 93       	push	r29
    1f36:	82 e0       	ldi	r24, 0x02	; 2
    1f38:	90 e0       	ldi	r25, 0x00	; 0
    1f3a:	a0 e0       	ldi	r26, 0x00	; 0
    1f3c:	b0 e0       	ldi	r27, 0x00	; 0
    1f3e:	80 93 28 02 	sts	0x0228, r24
    1f42:	90 93 29 02 	sts	0x0229, r25
    1f46:	a0 93 2a 02 	sts	0x022A, r26
    1f4a:	b0 93 2b 02 	sts	0x022B, r27
    1f4e:	80 e6       	ldi	r24, 0x60	; 96
    1f50:	90 e0       	ldi	r25, 0x00	; 0
    1f52:	0e 94 8e 0d 	call	0x1b1c	; 0x1b1c <HLCD_voidWriteString>
    1f56:	80 e1       	ldi	r24, 0x10	; 16
    1f58:	97 e2       	ldi	r25, 0x27	; 39
    1f5a:	28 ec       	ldi	r18, 0xC8	; 200
    1f5c:	30 e0       	ldi	r19, 0x00	; 0
    1f5e:	f9 01       	movw	r30, r18
    1f60:	31 97       	sbiw	r30, 0x01	; 1
    1f62:	f1 f7       	brne	.-4      	; 0x1f60 <OpenSystem+0x34>
    1f64:	01 97       	sbiw	r24, 0x01	; 1
    1f66:	d9 f7       	brne	.-10     	; 0x1f5e <OpenSystem+0x32>
    1f68:	00 e2       	ldi	r16, 0x20	; 32
    1f6a:	1e e4       	ldi	r17, 0x4E	; 78
    1f6c:	ff 24       	eor	r15, r15
    1f6e:	fa 94       	dec	r15
    1f70:	c8 ec       	ldi	r28, 0xC8	; 200
    1f72:	d0 e0       	ldi	r29, 0x00	; 0
    1f74:	10 92 62 02 	sts	0x0262, r1
    1f78:	0e 94 10 0e 	call	0x1c20	; 0x1c20 <HLCD_voidClear>
    1f7c:	8b e6       	ldi	r24, 0x6B	; 107
    1f7e:	90 e0       	ldi	r25, 0x00	; 0
    1f80:	0e 94 8e 0d 	call	0x1b1c	; 0x1b1c <HLCD_voidWriteString>
    1f84:	81 e0       	ldi	r24, 0x01	; 1
    1f86:	61 e0       	ldi	r22, 0x01	; 1
    1f88:	0e 94 01 0e 	call	0x1c02	; 0x1c02 <HLCD_voidGoTo>
    1f8c:	3b c0       	rjmp	.+118    	; 0x2004 <OpenSystem+0xd8>
    1f8e:	83 36       	cpi	r24, 0x63	; 99
    1f90:	61 f4       	brne	.+24     	; 0x1faa <OpenSystem+0x7e>
    1f92:	0e 94 10 0e 	call	0x1c20	; 0x1c20 <HLCD_voidClear>
    1f96:	8b e6       	ldi	r24, 0x6B	; 107
    1f98:	90 e0       	ldi	r25, 0x00	; 0
    1f9a:	0e 94 8e 0d 	call	0x1b1c	; 0x1b1c <HLCD_voidWriteString>
    1f9e:	81 e0       	ldi	r24, 0x01	; 1
    1fa0:	61 e0       	ldi	r22, 0x01	; 1
    1fa2:	0e 94 01 0e 	call	0x1c02	; 0x1c02 <HLCD_voidGoTo>
    1fa6:	10 92 62 02 	sts	0x0262, r1
    1faa:	90 91 6b 02 	lds	r25, 0x026B
    1fae:	89 2f       	mov	r24, r25
    1fb0:	81 53       	subi	r24, 0x31	; 49
    1fb2:	86 30       	cpi	r24, 0x06	; 6
    1fb4:	d8 f4       	brcc	.+54     	; 0x1fec <OpenSystem+0xc0>
    1fb6:	89 2f       	mov	r24, r25
    1fb8:	0e 94 a5 0b 	call	0x174a	; 0x174a <HLCD_voidWriteChracter>
    1fbc:	c8 01       	movw	r24, r16
    1fbe:	01 97       	sbiw	r24, 0x01	; 1
    1fc0:	f1 f7       	brne	.-4      	; 0x1fbe <OpenSystem+0x92>
    1fc2:	60 91 62 02 	lds	r22, 0x0262
    1fc6:	6f 5f       	subi	r22, 0xFF	; 255
    1fc8:	81 e0       	ldi	r24, 0x01	; 1
    1fca:	0e 94 01 0e 	call	0x1c02	; 0x1c02 <HLCD_voidGoTo>
    1fce:	8a e2       	ldi	r24, 0x2A	; 42
    1fd0:	0e 94 a5 0b 	call	0x174a	; 0x174a <HLCD_voidWriteChracter>
    1fd4:	90 91 62 02 	lds	r25, 0x0262
    1fd8:	e9 2f       	mov	r30, r25
    1fda:	f0 e0       	ldi	r31, 0x00	; 0
    1fdc:	e2 5e       	subi	r30, 0xE2	; 226
    1fde:	fd 4f       	sbci	r31, 0xFD	; 253
    1fe0:	80 91 6b 02 	lds	r24, 0x026B
    1fe4:	80 83       	st	Z, r24
    1fe6:	9f 5f       	subi	r25, 0xFF	; 255
    1fe8:	90 93 62 02 	sts	0x0262, r25
    1fec:	0e 94 56 0e 	call	0x1cac	; 0x1cac <KPD_U8GetPressedKey>
    1ff0:	80 93 6b 02 	sts	0x026B, r24
    1ff4:	80 91 6b 02 	lds	r24, 0x026B
    1ff8:	8f 3f       	cpi	r24, 0xFF	; 255
    1ffa:	c1 f3       	breq	.-16     	; 0x1fec <OpenSystem+0xc0>
    1ffc:	86 e0       	ldi	r24, 0x06	; 6
    1ffe:	63 e0       	ldi	r22, 0x03	; 3
    2000:	0e 94 64 0f 	call	0x1ec8	; 0x1ec8 <HBUZ_voidOnce>
    2004:	80 91 6b 02 	lds	r24, 0x026B
    2008:	85 36       	cpi	r24, 0x65	; 101
    200a:	09 f0       	breq	.+2      	; 0x200e <OpenSystem+0xe2>
    200c:	c0 cf       	rjmp	.-128    	; 0x1f8e <OpenSystem+0x62>
    200e:	e0 91 62 02 	lds	r30, 0x0262
    2012:	f0 e0       	ldi	r31, 0x00	; 0
    2014:	e2 5e       	subi	r30, 0xE2	; 226
    2016:	fd 4f       	sbci	r31, 0xFD	; 253
    2018:	10 82       	st	Z, r1
    201a:	f0 92 6b 02 	sts	0x026B, r15
    201e:	0e 94 10 0e 	call	0x1c20	; 0x1c20 <HLCD_voidClear>
    2022:	80 91 1e 02 	lds	r24, 0x021E
    2026:	81 33       	cpi	r24, 0x31	; 49
    2028:	09 f0       	breq	.+2      	; 0x202c <OpenSystem+0x100>
    202a:	4d c0       	rjmp	.+154    	; 0x20c6 <OpenSystem+0x19a>
    202c:	80 91 1f 02 	lds	r24, 0x021F
    2030:	82 33       	cpi	r24, 0x32	; 50
    2032:	09 f0       	breq	.+2      	; 0x2036 <OpenSystem+0x10a>
    2034:	48 c0       	rjmp	.+144    	; 0x20c6 <OpenSystem+0x19a>
    2036:	80 91 20 02 	lds	r24, 0x0220
    203a:	83 33       	cpi	r24, 0x33	; 51
    203c:	09 f0       	breq	.+2      	; 0x2040 <OpenSystem+0x114>
    203e:	43 c0       	rjmp	.+134    	; 0x20c6 <OpenSystem+0x19a>
    2040:	80 91 21 02 	lds	r24, 0x0221
    2044:	84 33       	cpi	r24, 0x34	; 52
    2046:	09 f0       	breq	.+2      	; 0x204a <OpenSystem+0x11e>
    2048:	3e c0       	rjmp	.+124    	; 0x20c6 <OpenSystem+0x19a>
    204a:	8a e7       	ldi	r24, 0x7A	; 122
    204c:	90 e0       	ldi	r25, 0x00	; 0
    204e:	0e 94 8e 0d 	call	0x1b1c	; 0x1b1c <HLCD_voidWriteString>
    2052:	81 e0       	ldi	r24, 0x01	; 1
    2054:	60 e0       	ldi	r22, 0x00	; 0
    2056:	0e 94 01 0e 	call	0x1c02	; 0x1c02 <HLCD_voidGoTo>
    205a:	86 e8       	ldi	r24, 0x86	; 134
    205c:	90 e0       	ldi	r25, 0x00	; 0
    205e:	0e 94 8e 0d 	call	0x1b1c	; 0x1b1c <HLCD_voidWriteString>
    2062:	88 e8       	ldi	r24, 0x88	; 136
    2064:	93 e1       	ldi	r25, 0x13	; 19
    2066:	28 ec       	ldi	r18, 0xC8	; 200
    2068:	30 e0       	ldi	r19, 0x00	; 0
    206a:	f9 01       	movw	r30, r18
    206c:	31 97       	sbiw	r30, 0x01	; 1
    206e:	f1 f7       	brne	.-4      	; 0x206c <OpenSystem+0x140>
    2070:	01 97       	sbiw	r24, 0x01	; 1
    2072:	d9 f7       	brne	.-10     	; 0x206a <OpenSystem+0x13e>
    2074:	0e 94 10 0e 	call	0x1c20	; 0x1c20 <HLCD_voidClear>
    2078:	89 e9       	ldi	r24, 0x99	; 153
    207a:	90 e0       	ldi	r25, 0x00	; 0
    207c:	0e 94 8e 0d 	call	0x1b1c	; 0x1b1c <HLCD_voidWriteString>
    2080:	8c eb       	ldi	r24, 0xBC	; 188
    2082:	92 e0       	ldi	r25, 0x02	; 2
    2084:	0e 94 51 0b 	call	0x16a2	; 0x16a2 <SERVO_INIT>
    2088:	80 e2       	ldi	r24, 0x20	; 32
    208a:	9e e4       	ldi	r25, 0x4E	; 78
    208c:	28 ec       	ldi	r18, 0xC8	; 200
    208e:	30 e0       	ldi	r19, 0x00	; 0
    2090:	f9 01       	movw	r30, r18
    2092:	31 97       	sbiw	r30, 0x01	; 1
    2094:	f1 f7       	brne	.-4      	; 0x2092 <OpenSystem+0x166>
    2096:	01 97       	sbiw	r24, 0x01	; 1
    2098:	d9 f7       	brne	.-10     	; 0x2090 <OpenSystem+0x164>
    209a:	0e 94 10 0e 	call	0x1c20	; 0x1c20 <HLCD_voidClear>
    209e:	80 e4       	ldi	r24, 0x40	; 64
    20a0:	96 e0       	ldi	r25, 0x06	; 6
    20a2:	0e 94 51 0b 	call	0x16a2	; 0x16a2 <SERVO_INIT>
    20a6:	85 ea       	ldi	r24, 0xA5	; 165
    20a8:	90 e0       	ldi	r25, 0x00	; 0
    20aa:	0e 94 8e 0d 	call	0x1b1c	; 0x1b1c <HLCD_voidWriteString>
    20ae:	80 e2       	ldi	r24, 0x20	; 32
    20b0:	9e e4       	ldi	r25, 0x4E	; 78
    20b2:	28 ec       	ldi	r18, 0xC8	; 200
    20b4:	30 e0       	ldi	r19, 0x00	; 0
    20b6:	f9 01       	movw	r30, r18
    20b8:	31 97       	sbiw	r30, 0x01	; 1
    20ba:	f1 f7       	brne	.-4      	; 0x20b8 <OpenSystem+0x18c>
    20bc:	01 97       	sbiw	r24, 0x01	; 1
    20be:	d9 f7       	brne	.-10     	; 0x20b6 <OpenSystem+0x18a>
    20c0:	0e 94 10 0e 	call	0x1c20	; 0x1c20 <HLCD_voidClear>
    20c4:	62 c0       	rjmp	.+196    	; 0x218a <OpenSystem+0x25e>
    20c6:	86 e0       	ldi	r24, 0x06	; 6
    20c8:	63 e0       	ldi	r22, 0x03	; 3
    20ca:	0e 94 30 0f 	call	0x1e60	; 0x1e60 <HBUZ_voidTwice>
    20ce:	8f ea       	ldi	r24, 0xAF	; 175
    20d0:	90 e0       	ldi	r25, 0x00	; 0
    20d2:	0e 94 8e 0d 	call	0x1b1c	; 0x1b1c <HLCD_voidWriteString>
    20d6:	88 e8       	ldi	r24, 0x88	; 136
    20d8:	93 e1       	ldi	r25, 0x13	; 19
    20da:	fe 01       	movw	r30, r28
    20dc:	31 97       	sbiw	r30, 0x01	; 1
    20de:	f1 f7       	brne	.-4      	; 0x20dc <OpenSystem+0x1b0>
    20e0:	01 97       	sbiw	r24, 0x01	; 1
    20e2:	d9 f7       	brne	.-10     	; 0x20da <OpenSystem+0x1ae>
    20e4:	0e 94 10 0e 	call	0x1c20	; 0x1c20 <HLCD_voidClear>
    20e8:	80 91 28 02 	lds	r24, 0x0228
    20ec:	90 91 29 02 	lds	r25, 0x0229
    20f0:	a0 91 2a 02 	lds	r26, 0x022A
    20f4:	b0 91 2b 02 	lds	r27, 0x022B
    20f8:	00 97       	sbiw	r24, 0x00	; 0
    20fa:	a1 05       	cpc	r26, r1
    20fc:	b1 05       	cpc	r27, r1
    20fe:	91 f4       	brne	.+36     	; 0x2124 <OpenSystem+0x1f8>
    2100:	0e 94 10 0e 	call	0x1c20	; 0x1c20 <HLCD_voidClear>
    2104:	89 eb       	ldi	r24, 0xB9	; 185
    2106:	90 e0       	ldi	r25, 0x00	; 0
    2108:	0e 94 8e 0d 	call	0x1b1c	; 0x1b1c <HLCD_voidWriteString>
    210c:	88 e8       	ldi	r24, 0x88	; 136
    210e:	93 e1       	ldi	r25, 0x13	; 19
    2110:	28 ec       	ldi	r18, 0xC8	; 200
    2112:	30 e0       	ldi	r19, 0x00	; 0
    2114:	f9 01       	movw	r30, r18
    2116:	31 97       	sbiw	r30, 0x01	; 1
    2118:	f1 f7       	brne	.-4      	; 0x2116 <OpenSystem+0x1ea>
    211a:	01 97       	sbiw	r24, 0x01	; 1
    211c:	d9 f7       	brne	.-10     	; 0x2114 <OpenSystem+0x1e8>
    211e:	10 92 62 02 	sts	0x0262, r1
    2122:	33 c0       	rjmp	.+102    	; 0x218a <OpenSystem+0x25e>
    2124:	8c ec       	ldi	r24, 0xCC	; 204
    2126:	90 e0       	ldi	r25, 0x00	; 0
    2128:	0e 94 8e 0d 	call	0x1b1c	; 0x1b1c <HLCD_voidWriteString>
    212c:	81 e0       	ldi	r24, 0x01	; 1
    212e:	63 e0       	ldi	r22, 0x03	; 3
    2130:	0e 94 01 0e 	call	0x1c02	; 0x1c02 <HLCD_voidGoTo>
    2134:	60 91 28 02 	lds	r22, 0x0228
    2138:	70 91 29 02 	lds	r23, 0x0229
    213c:	80 91 2a 02 	lds	r24, 0x022A
    2140:	90 91 2b 02 	lds	r25, 0x022B
    2144:	0e 94 13 0d 	call	0x1a26	; 0x1a26 <HLCD_voidWriteIntNumber>
    2148:	87 ed       	ldi	r24, 0xD7	; 215
    214a:	90 e0       	ldi	r25, 0x00	; 0
    214c:	0e 94 8e 0d 	call	0x1b1c	; 0x1b1c <HLCD_voidWriteString>
    2150:	88 e8       	ldi	r24, 0x88	; 136
    2152:	93 e1       	ldi	r25, 0x13	; 19
    2154:	fe 01       	movw	r30, r28
    2156:	31 97       	sbiw	r30, 0x01	; 1
    2158:	f1 f7       	brne	.-4      	; 0x2156 <OpenSystem+0x22a>
    215a:	01 97       	sbiw	r24, 0x01	; 1
    215c:	d9 f7       	brne	.-10     	; 0x2154 <OpenSystem+0x228>
    215e:	0e 94 10 0e 	call	0x1c20	; 0x1c20 <HLCD_voidClear>
    2162:	80 91 28 02 	lds	r24, 0x0228
    2166:	90 91 29 02 	lds	r25, 0x0229
    216a:	a0 91 2a 02 	lds	r26, 0x022A
    216e:	b0 91 2b 02 	lds	r27, 0x022B
    2172:	01 97       	sbiw	r24, 0x01	; 1
    2174:	a1 09       	sbc	r26, r1
    2176:	b1 09       	sbc	r27, r1
    2178:	80 93 28 02 	sts	0x0228, r24
    217c:	90 93 29 02 	sts	0x0229, r25
    2180:	a0 93 2a 02 	sts	0x022A, r26
    2184:	b0 93 2b 02 	sts	0x022B, r27
    2188:	f5 ce       	rjmp	.-534    	; 0x1f74 <OpenSystem+0x48>
    218a:	df 91       	pop	r29
    218c:	cf 91       	pop	r28
    218e:	1f 91       	pop	r17
    2190:	0f 91       	pop	r16
    2192:	ff 90       	pop	r15
    2194:	08 95       	ret

00002196 <LDR_On_LCD>:
    2196:	cf 93       	push	r28
    2198:	df 93       	push	r29
    219a:	81 e0       	ldi	r24, 0x01	; 1
    219c:	60 e0       	ldi	r22, 0x00	; 0
    219e:	0e 94 01 0e 	call	0x1c02	; 0x1c02 <HLCD_voidGoTo>
    21a2:	8f ed       	ldi	r24, 0xDF	; 223
    21a4:	90 e0       	ldi	r25, 0x00	; 0
    21a6:	0e 94 8e 0d 	call	0x1b1c	; 0x1b1c <HLCD_voidWriteString>
    21aa:	81 e0       	ldi	r24, 0x01	; 1
    21ac:	0e 94 18 0b 	call	0x1630	; 0x1630 <ADC_u16Read>
    21b0:	ec 01       	movw	r28, r24
    21b2:	84 e6       	ldi	r24, 0x64	; 100
    21b4:	90 e0       	ldi	r25, 0x00	; 0
    21b6:	c8 9f       	mul	r28, r24
    21b8:	b0 01       	movw	r22, r0
    21ba:	c9 9f       	mul	r28, r25
    21bc:	70 0d       	add	r23, r0
    21be:	d8 9f       	mul	r29, r24
    21c0:	70 0d       	add	r23, r0
    21c2:	11 24       	eor	r1, r1
    21c4:	67 2f       	mov	r22, r23
    21c6:	77 27       	eor	r23, r23
    21c8:	66 95       	lsr	r22
    21ca:	66 95       	lsr	r22
    21cc:	80 e0       	ldi	r24, 0x00	; 0
    21ce:	90 e0       	ldi	r25, 0x00	; 0
    21d0:	0e 94 13 0d 	call	0x1a26	; 0x1a26 <HLCD_voidWriteIntNumber>
    21d4:	85 e2       	ldi	r24, 0x25	; 37
    21d6:	0e 94 a5 0b 	call	0x174a	; 0x174a <HLCD_voidWriteChracter>
    21da:	c4 36       	cpi	r28, 0x64	; 100
    21dc:	d1 05       	cpc	r29, r1
    21de:	78 f5       	brcc	.+94     	; 0x223e <LDR_On_LCD+0xa8>
    21e0:	81 e0       	ldi	r24, 0x01	; 1
    21e2:	6b e0       	ldi	r22, 0x0B	; 11
    21e4:	0e 94 01 0e 	call	0x1c02	; 0x1c02 <HLCD_voidGoTo>
    21e8:	87 ee       	ldi	r24, 0xE7	; 231
    21ea:	90 e0       	ldi	r25, 0x00	; 0
    21ec:	0e 94 8e 0d 	call	0x1b1c	; 0x1b1c <HLCD_voidWriteString>
    21f0:	68 e0       	ldi	r22, 0x08	; 8
    21f2:	70 e0       	ldi	r23, 0x00	; 0
    21f4:	80 e0       	ldi	r24, 0x00	; 0
    21f6:	90 e0       	ldi	r25, 0x00	; 0
    21f8:	0e 94 13 0d 	call	0x1a26	; 0x1a26 <HLCD_voidWriteIntNumber>
    21fc:	80 e0       	ldi	r24, 0x00	; 0
    21fe:	61 e0       	ldi	r22, 0x01	; 1
    2200:	0e 94 92 0b 	call	0x1724	; 0x1724 <HLED_voidOn>
    2204:	81 e0       	ldi	r24, 0x01	; 1
    2206:	61 e0       	ldi	r22, 0x01	; 1
    2208:	0e 94 92 0b 	call	0x1724	; 0x1724 <HLED_voidOn>
    220c:	82 e0       	ldi	r24, 0x02	; 2
    220e:	61 e0       	ldi	r22, 0x01	; 1
    2210:	0e 94 92 0b 	call	0x1724	; 0x1724 <HLED_voidOn>
    2214:	83 e0       	ldi	r24, 0x03	; 3
    2216:	61 e0       	ldi	r22, 0x01	; 1
    2218:	0e 94 92 0b 	call	0x1724	; 0x1724 <HLED_voidOn>
    221c:	84 e0       	ldi	r24, 0x04	; 4
    221e:	61 e0       	ldi	r22, 0x01	; 1
    2220:	0e 94 92 0b 	call	0x1724	; 0x1724 <HLED_voidOn>
    2224:	85 e0       	ldi	r24, 0x05	; 5
    2226:	61 e0       	ldi	r22, 0x01	; 1
    2228:	0e 94 92 0b 	call	0x1724	; 0x1724 <HLED_voidOn>
    222c:	86 e0       	ldi	r24, 0x06	; 6
    222e:	61 e0       	ldi	r22, 0x01	; 1
    2230:	0e 94 92 0b 	call	0x1724	; 0x1724 <HLED_voidOn>
    2234:	87 e0       	ldi	r24, 0x07	; 7
    2236:	61 e0       	ldi	r22, 0x01	; 1
    2238:	0e 94 92 0b 	call	0x1724	; 0x1724 <HLED_voidOn>
    223c:	df c0       	rjmp	.+446    	; 0x23fc <LDR_On_LCD+0x266>
    223e:	ce 01       	movw	r24, r28
    2240:	84 56       	subi	r24, 0x64	; 100
    2242:	90 40       	sbci	r25, 0x00	; 0
    2244:	88 3c       	cpi	r24, 0xC8	; 200
    2246:	91 05       	cpc	r25, r1
    2248:	58 f5       	brcc	.+86     	; 0x22a0 <LDR_On_LCD+0x10a>
    224a:	81 e0       	ldi	r24, 0x01	; 1
    224c:	6b e0       	ldi	r22, 0x0B	; 11
    224e:	0e 94 01 0e 	call	0x1c02	; 0x1c02 <HLCD_voidGoTo>
    2252:	87 ee       	ldi	r24, 0xE7	; 231
    2254:	90 e0       	ldi	r25, 0x00	; 0
    2256:	0e 94 8e 0d 	call	0x1b1c	; 0x1b1c <HLCD_voidWriteString>
    225a:	67 e0       	ldi	r22, 0x07	; 7
    225c:	70 e0       	ldi	r23, 0x00	; 0
    225e:	80 e0       	ldi	r24, 0x00	; 0
    2260:	90 e0       	ldi	r25, 0x00	; 0
    2262:	0e 94 13 0d 	call	0x1a26	; 0x1a26 <HLCD_voidWriteIntNumber>
    2266:	80 e0       	ldi	r24, 0x00	; 0
    2268:	61 e0       	ldi	r22, 0x01	; 1
    226a:	0e 94 92 0b 	call	0x1724	; 0x1724 <HLED_voidOn>
    226e:	81 e0       	ldi	r24, 0x01	; 1
    2270:	61 e0       	ldi	r22, 0x01	; 1
    2272:	0e 94 92 0b 	call	0x1724	; 0x1724 <HLED_voidOn>
    2276:	82 e0       	ldi	r24, 0x02	; 2
    2278:	61 e0       	ldi	r22, 0x01	; 1
    227a:	0e 94 92 0b 	call	0x1724	; 0x1724 <HLED_voidOn>
    227e:	83 e0       	ldi	r24, 0x03	; 3
    2280:	61 e0       	ldi	r22, 0x01	; 1
    2282:	0e 94 92 0b 	call	0x1724	; 0x1724 <HLED_voidOn>
    2286:	84 e0       	ldi	r24, 0x04	; 4
    2288:	61 e0       	ldi	r22, 0x01	; 1
    228a:	0e 94 92 0b 	call	0x1724	; 0x1724 <HLED_voidOn>
    228e:	85 e0       	ldi	r24, 0x05	; 5
    2290:	61 e0       	ldi	r22, 0x01	; 1
    2292:	0e 94 92 0b 	call	0x1724	; 0x1724 <HLED_voidOn>
    2296:	86 e0       	ldi	r24, 0x06	; 6
    2298:	61 e0       	ldi	r22, 0x01	; 1
    229a:	0e 94 92 0b 	call	0x1724	; 0x1724 <HLED_voidOn>
    229e:	aa c0       	rjmp	.+340    	; 0x23f4 <LDR_On_LCD+0x25e>
    22a0:	ce 01       	movw	r24, r28
    22a2:	8c 52       	subi	r24, 0x2C	; 44
    22a4:	91 40       	sbci	r25, 0x01	; 1
    22a6:	88 3c       	cpi	r24, 0xC8	; 200
    22a8:	91 05       	cpc	r25, r1
    22aa:	38 f5       	brcc	.+78     	; 0x22fa <LDR_On_LCD+0x164>
    22ac:	81 e0       	ldi	r24, 0x01	; 1
    22ae:	6b e0       	ldi	r22, 0x0B	; 11
    22b0:	0e 94 01 0e 	call	0x1c02	; 0x1c02 <HLCD_voidGoTo>
    22b4:	87 ee       	ldi	r24, 0xE7	; 231
    22b6:	90 e0       	ldi	r25, 0x00	; 0
    22b8:	0e 94 8e 0d 	call	0x1b1c	; 0x1b1c <HLCD_voidWriteString>
    22bc:	66 e0       	ldi	r22, 0x06	; 6
    22be:	70 e0       	ldi	r23, 0x00	; 0
    22c0:	80 e0       	ldi	r24, 0x00	; 0
    22c2:	90 e0       	ldi	r25, 0x00	; 0
    22c4:	0e 94 13 0d 	call	0x1a26	; 0x1a26 <HLCD_voidWriteIntNumber>
    22c8:	80 e0       	ldi	r24, 0x00	; 0
    22ca:	61 e0       	ldi	r22, 0x01	; 1
    22cc:	0e 94 92 0b 	call	0x1724	; 0x1724 <HLED_voidOn>
    22d0:	81 e0       	ldi	r24, 0x01	; 1
    22d2:	61 e0       	ldi	r22, 0x01	; 1
    22d4:	0e 94 92 0b 	call	0x1724	; 0x1724 <HLED_voidOn>
    22d8:	82 e0       	ldi	r24, 0x02	; 2
    22da:	61 e0       	ldi	r22, 0x01	; 1
    22dc:	0e 94 92 0b 	call	0x1724	; 0x1724 <HLED_voidOn>
    22e0:	83 e0       	ldi	r24, 0x03	; 3
    22e2:	61 e0       	ldi	r22, 0x01	; 1
    22e4:	0e 94 92 0b 	call	0x1724	; 0x1724 <HLED_voidOn>
    22e8:	84 e0       	ldi	r24, 0x04	; 4
    22ea:	61 e0       	ldi	r22, 0x01	; 1
    22ec:	0e 94 92 0b 	call	0x1724	; 0x1724 <HLED_voidOn>
    22f0:	85 e0       	ldi	r24, 0x05	; 5
    22f2:	61 e0       	ldi	r22, 0x01	; 1
    22f4:	0e 94 92 0b 	call	0x1724	; 0x1724 <HLED_voidOn>
    22f8:	79 c0       	rjmp	.+242    	; 0x23ec <LDR_On_LCD+0x256>
    22fa:	ce 01       	movw	r24, r28
    22fc:	84 5f       	subi	r24, 0xF4	; 244
    22fe:	91 40       	sbci	r25, 0x01	; 1
    2300:	88 3c       	cpi	r24, 0xC8	; 200
    2302:	91 05       	cpc	r25, r1
    2304:	18 f5       	brcc	.+70     	; 0x234c <LDR_On_LCD+0x1b6>
    2306:	81 e0       	ldi	r24, 0x01	; 1
    2308:	6b e0       	ldi	r22, 0x0B	; 11
    230a:	0e 94 01 0e 	call	0x1c02	; 0x1c02 <HLCD_voidGoTo>
    230e:	87 ee       	ldi	r24, 0xE7	; 231
    2310:	90 e0       	ldi	r25, 0x00	; 0
    2312:	0e 94 8e 0d 	call	0x1b1c	; 0x1b1c <HLCD_voidWriteString>
    2316:	65 e0       	ldi	r22, 0x05	; 5
    2318:	70 e0       	ldi	r23, 0x00	; 0
    231a:	80 e0       	ldi	r24, 0x00	; 0
    231c:	90 e0       	ldi	r25, 0x00	; 0
    231e:	0e 94 13 0d 	call	0x1a26	; 0x1a26 <HLCD_voidWriteIntNumber>
    2322:	80 e0       	ldi	r24, 0x00	; 0
    2324:	61 e0       	ldi	r22, 0x01	; 1
    2326:	0e 94 92 0b 	call	0x1724	; 0x1724 <HLED_voidOn>
    232a:	81 e0       	ldi	r24, 0x01	; 1
    232c:	61 e0       	ldi	r22, 0x01	; 1
    232e:	0e 94 92 0b 	call	0x1724	; 0x1724 <HLED_voidOn>
    2332:	82 e0       	ldi	r24, 0x02	; 2
    2334:	61 e0       	ldi	r22, 0x01	; 1
    2336:	0e 94 92 0b 	call	0x1724	; 0x1724 <HLED_voidOn>
    233a:	83 e0       	ldi	r24, 0x03	; 3
    233c:	61 e0       	ldi	r22, 0x01	; 1
    233e:	0e 94 92 0b 	call	0x1724	; 0x1724 <HLED_voidOn>
    2342:	84 e0       	ldi	r24, 0x04	; 4
    2344:	61 e0       	ldi	r22, 0x01	; 1
    2346:	0e 94 92 0b 	call	0x1724	; 0x1724 <HLED_voidOn>
    234a:	4c c0       	rjmp	.+152    	; 0x23e4 <LDR_On_LCD+0x24e>
    234c:	ce 01       	movw	r24, r28
    234e:	8c 5b       	subi	r24, 0xBC	; 188
    2350:	92 40       	sbci	r25, 0x02	; 2
    2352:	88 3c       	cpi	r24, 0xC8	; 200
    2354:	91 05       	cpc	r25, r1
    2356:	f8 f4       	brcc	.+62     	; 0x2396 <LDR_On_LCD+0x200>
    2358:	81 e0       	ldi	r24, 0x01	; 1
    235a:	6b e0       	ldi	r22, 0x0B	; 11
    235c:	0e 94 01 0e 	call	0x1c02	; 0x1c02 <HLCD_voidGoTo>
    2360:	87 ee       	ldi	r24, 0xE7	; 231
    2362:	90 e0       	ldi	r25, 0x00	; 0
    2364:	0e 94 8e 0d 	call	0x1b1c	; 0x1b1c <HLCD_voidWriteString>
    2368:	64 e0       	ldi	r22, 0x04	; 4
    236a:	70 e0       	ldi	r23, 0x00	; 0
    236c:	80 e0       	ldi	r24, 0x00	; 0
    236e:	90 e0       	ldi	r25, 0x00	; 0
    2370:	0e 94 13 0d 	call	0x1a26	; 0x1a26 <HLCD_voidWriteIntNumber>
    2374:	80 e0       	ldi	r24, 0x00	; 0
    2376:	61 e0       	ldi	r22, 0x01	; 1
    2378:	0e 94 92 0b 	call	0x1724	; 0x1724 <HLED_voidOn>
    237c:	81 e0       	ldi	r24, 0x01	; 1
    237e:	61 e0       	ldi	r22, 0x01	; 1
    2380:	0e 94 92 0b 	call	0x1724	; 0x1724 <HLED_voidOn>
    2384:	82 e0       	ldi	r24, 0x02	; 2
    2386:	61 e0       	ldi	r22, 0x01	; 1
    2388:	0e 94 92 0b 	call	0x1724	; 0x1724 <HLED_voidOn>
    238c:	83 e0       	ldi	r24, 0x03	; 3
    238e:	61 e0       	ldi	r22, 0x01	; 1
    2390:	0e 94 92 0b 	call	0x1724	; 0x1724 <HLED_voidOn>
    2394:	23 c0       	rjmp	.+70     	; 0x23dc <LDR_On_LCD+0x246>
    2396:	c4 58       	subi	r28, 0x84	; 132
    2398:	d3 40       	sbci	r29, 0x03	; 3
    239a:	cc 37       	cpi	r28, 0x7C	; 124
    239c:	d1 05       	cpc	r29, r1
    239e:	70 f5       	brcc	.+92     	; 0x23fc <LDR_On_LCD+0x266>
    23a0:	81 e0       	ldi	r24, 0x01	; 1
    23a2:	6b e0       	ldi	r22, 0x0B	; 11
    23a4:	0e 94 01 0e 	call	0x1c02	; 0x1c02 <HLCD_voidGoTo>
    23a8:	87 ee       	ldi	r24, 0xE7	; 231
    23aa:	90 e0       	ldi	r25, 0x00	; 0
    23ac:	0e 94 8e 0d 	call	0x1b1c	; 0x1b1c <HLCD_voidWriteString>
    23b0:	62 e0       	ldi	r22, 0x02	; 2
    23b2:	70 e0       	ldi	r23, 0x00	; 0
    23b4:	80 e0       	ldi	r24, 0x00	; 0
    23b6:	90 e0       	ldi	r25, 0x00	; 0
    23b8:	0e 94 13 0d 	call	0x1a26	; 0x1a26 <HLCD_voidWriteIntNumber>
    23bc:	80 e0       	ldi	r24, 0x00	; 0
    23be:	61 e0       	ldi	r22, 0x01	; 1
    23c0:	0e 94 92 0b 	call	0x1724	; 0x1724 <HLED_voidOn>
    23c4:	81 e0       	ldi	r24, 0x01	; 1
    23c6:	61 e0       	ldi	r22, 0x01	; 1
    23c8:	0e 94 92 0b 	call	0x1724	; 0x1724 <HLED_voidOn>
    23cc:	82 e0       	ldi	r24, 0x02	; 2
    23ce:	61 e0       	ldi	r22, 0x01	; 1
    23d0:	0e 94 8e 0b 	call	0x171c	; 0x171c <HLED_voidOff>
    23d4:	83 e0       	ldi	r24, 0x03	; 3
    23d6:	61 e0       	ldi	r22, 0x01	; 1
    23d8:	0e 94 8e 0b 	call	0x171c	; 0x171c <HLED_voidOff>
    23dc:	84 e0       	ldi	r24, 0x04	; 4
    23de:	61 e0       	ldi	r22, 0x01	; 1
    23e0:	0e 94 8e 0b 	call	0x171c	; 0x171c <HLED_voidOff>
    23e4:	85 e0       	ldi	r24, 0x05	; 5
    23e6:	61 e0       	ldi	r22, 0x01	; 1
    23e8:	0e 94 8e 0b 	call	0x171c	; 0x171c <HLED_voidOff>
    23ec:	86 e0       	ldi	r24, 0x06	; 6
    23ee:	61 e0       	ldi	r22, 0x01	; 1
    23f0:	0e 94 8e 0b 	call	0x171c	; 0x171c <HLED_voidOff>
    23f4:	87 e0       	ldi	r24, 0x07	; 7
    23f6:	61 e0       	ldi	r22, 0x01	; 1
    23f8:	0e 94 8e 0b 	call	0x171c	; 0x171c <HLED_voidOff>
    23fc:	df 91       	pop	r29
    23fe:	cf 91       	pop	r28
    2400:	08 95       	ret

00002402 <TempSensor>:
    2402:	cf 93       	push	r28
    2404:	df 93       	push	r29
    2406:	0e 94 10 0e 	call	0x1c20	; 0x1c20 <HLCD_voidClear>
    240a:	80 e0       	ldi	r24, 0x00	; 0
    240c:	60 e0       	ldi	r22, 0x00	; 0
    240e:	0e 94 01 0e 	call	0x1c02	; 0x1c02 <HLCD_voidGoTo>
    2412:	8d ee       	ldi	r24, 0xED	; 237
    2414:	90 e0       	ldi	r25, 0x00	; 0
    2416:	0e 94 8e 0d 	call	0x1b1c	; 0x1b1c <HLCD_voidWriteString>
    241a:	80 e0       	ldi	r24, 0x00	; 0
    241c:	0e 94 18 0b 	call	0x1630	; 0x1630 <ADC_u16Read>
    2420:	a0 e0       	ldi	r26, 0x00	; 0
    2422:	b0 e0       	ldi	r27, 0x00	; 0
    2424:	bc 01       	movw	r22, r24
    2426:	cd 01       	movw	r24, r26
    2428:	0e 94 cd 03 	call	0x79a	; 0x79a <__floatunsisf>
    242c:	20 e0       	ldi	r18, 0x00	; 0
    242e:	30 e4       	ldi	r19, 0x40	; 64
    2430:	4c e9       	ldi	r20, 0x9C	; 156
    2432:	50 e4       	ldi	r21, 0x40	; 64
    2434:	0e 94 1f 02 	call	0x43e	; 0x43e <__mulsf3>
    2438:	0e 94 49 00 	call	0x92	; 0x92 <__fixunssfsi>
    243c:	dc 01       	movw	r26, r24
    243e:	cb 01       	movw	r24, r22
    2440:	ec 01       	movw	r28, r24
    2442:	6a e0       	ldi	r22, 0x0A	; 10
    2444:	70 e0       	ldi	r23, 0x00	; 0
    2446:	0e 94 ea 12 	call	0x25d4	; 0x25d4 <__udivmodhi4>
    244a:	80 e0       	ldi	r24, 0x00	; 0
    244c:	90 e0       	ldi	r25, 0x00	; 0
    244e:	0e 94 13 0d 	call	0x1a26	; 0x1a26 <HLCD_voidWriteIntNumber>
    2452:	83 e4       	ldi	r24, 0x43	; 67
    2454:	0e 94 a5 0b 	call	0x174a	; 0x174a <HLCD_voidWriteChracter>
    2458:	81 e0       	ldi	r24, 0x01	; 1
    245a:	c4 30       	cpi	r28, 0x04	; 4
    245c:	d8 07       	cpc	r29, r24
    245e:	60 f0       	brcs	.+24     	; 0x2478 <TempSensor+0x76>
    2460:	80 e0       	ldi	r24, 0x00	; 0
    2462:	69 e0       	ldi	r22, 0x09	; 9
    2464:	0e 94 01 0e 	call	0x1c02	; 0x1c02 <HLCD_voidGoTo>
    2468:	83 ef       	ldi	r24, 0xF3	; 243
    246a:	90 e0       	ldi	r25, 0x00	; 0
    246c:	0e 94 8e 0d 	call	0x1b1c	; 0x1b1c <HLCD_voidWriteString>
    2470:	87 e0       	ldi	r24, 0x07	; 7
    2472:	63 e0       	ldi	r22, 0x03	; 3
    2474:	41 e0       	ldi	r20, 0x01	; 1
    2476:	0b c0       	rjmp	.+22     	; 0x248e <TempSensor+0x8c>
    2478:	80 e0       	ldi	r24, 0x00	; 0
    247a:	69 e0       	ldi	r22, 0x09	; 9
    247c:	0e 94 01 0e 	call	0x1c02	; 0x1c02 <HLCD_voidGoTo>
    2480:	8a ef       	ldi	r24, 0xFA	; 250
    2482:	90 e0       	ldi	r25, 0x00	; 0
    2484:	0e 94 8e 0d 	call	0x1b1c	; 0x1b1c <HLCD_voidWriteString>
    2488:	87 e0       	ldi	r24, 0x07	; 7
    248a:	63 e0       	ldi	r22, 0x03	; 3
    248c:	40 e0       	ldi	r20, 0x00	; 0
    248e:	0e 94 e8 09 	call	0x13d0	; 0x13d0 <MDIO_voidSetPinValue>
    2492:	ca 59       	subi	r28, 0x9A	; 154
    2494:	d1 40       	sbci	r29, 0x01	; 1
    2496:	20 f0       	brcs	.+8      	; 0x24a0 <TempSensor+0x9e>
    2498:	86 e0       	ldi	r24, 0x06	; 6
    249a:	63 e0       	ldi	r22, 0x03	; 3
    249c:	0e 94 84 0f 	call	0x1f08	; 0x1f08 <HBUZ_voidToggle>
    24a0:	0e 94 cb 10 	call	0x2196	; 0x2196 <LDR_On_LCD>
    24a4:	df 91       	pop	r29
    24a6:	cf 91       	pop	r28
    24a8:	08 95       	ret

000024aa <main>:
    24aa:	86 e0       	ldi	r24, 0x06	; 6
    24ac:	63 e0       	ldi	r22, 0x03	; 3
    24ae:	0e 94 87 0f 	call	0x1f0e	; 0x1f0e <HBUZ_voidInit>
    24b2:	0e 94 18 0e 	call	0x1c30	; 0x1c30 <HLCD_voidInit>
    24b6:	80 e0       	ldi	r24, 0x00	; 0
    24b8:	65 e0       	ldi	r22, 0x05	; 5
    24ba:	0e 94 01 0e 	call	0x1c02	; 0x1c02 <HLCD_voidGoTo>
    24be:	82 e0       	ldi	r24, 0x02	; 2
    24c0:	91 e0       	ldi	r25, 0x01	; 1
    24c2:	0e 94 8e 0d 	call	0x1b1c	; 0x1b1c <HLCD_voidWriteString>
    24c6:	81 e0       	ldi	r24, 0x01	; 1
    24c8:	64 e0       	ldi	r22, 0x04	; 4
    24ca:	0e 94 01 0e 	call	0x1c02	; 0x1c02 <HLCD_voidGoTo>
    24ce:	8a e0       	ldi	r24, 0x0A	; 10
    24d0:	91 e0       	ldi	r25, 0x01	; 1
    24d2:	0e 94 8e 0d 	call	0x1b1c	; 0x1b1c <HLCD_voidWriteString>
    24d6:	80 e0       	ldi	r24, 0x00	; 0
    24d8:	61 e0       	ldi	r22, 0x01	; 1
    24da:	0e 94 96 0b 	call	0x172c	; 0x172c <HLED_voidInit>
    24de:	81 e0       	ldi	r24, 0x01	; 1
    24e0:	61 e0       	ldi	r22, 0x01	; 1
    24e2:	0e 94 96 0b 	call	0x172c	; 0x172c <HLED_voidInit>
    24e6:	82 e0       	ldi	r24, 0x02	; 2
    24e8:	61 e0       	ldi	r22, 0x01	; 1
    24ea:	0e 94 96 0b 	call	0x172c	; 0x172c <HLED_voidInit>
    24ee:	83 e0       	ldi	r24, 0x03	; 3
    24f0:	61 e0       	ldi	r22, 0x01	; 1
    24f2:	0e 94 96 0b 	call	0x172c	; 0x172c <HLED_voidInit>
    24f6:	84 e0       	ldi	r24, 0x04	; 4
    24f8:	61 e0       	ldi	r22, 0x01	; 1
    24fa:	0e 94 96 0b 	call	0x172c	; 0x172c <HLED_voidInit>
    24fe:	85 e0       	ldi	r24, 0x05	; 5
    2500:	61 e0       	ldi	r22, 0x01	; 1
    2502:	0e 94 96 0b 	call	0x172c	; 0x172c <HLED_voidInit>
    2506:	86 e0       	ldi	r24, 0x06	; 6
    2508:	61 e0       	ldi	r22, 0x01	; 1
    250a:	0e 94 96 0b 	call	0x172c	; 0x172c <HLED_voidInit>
    250e:	87 e0       	ldi	r24, 0x07	; 7
    2510:	61 e0       	ldi	r22, 0x01	; 1
    2512:	0e 94 96 0b 	call	0x172c	; 0x172c <HLED_voidInit>
    2516:	87 e0       	ldi	r24, 0x07	; 7
    2518:	63 e0       	ldi	r22, 0x03	; 3
    251a:	41 e0       	ldi	r20, 0x01	; 1
    251c:	0e 94 6e 09 	call	0x12dc	; 0x12dc <MDIO_voidSetPinMode>
    2520:	80 e0       	ldi	r24, 0x00	; 0
    2522:	60 e0       	ldi	r22, 0x00	; 0
    2524:	40 e0       	ldi	r20, 0x00	; 0
    2526:	0e 94 6e 09 	call	0x12dc	; 0x12dc <MDIO_voidSetPinMode>
    252a:	81 e0       	ldi	r24, 0x01	; 1
    252c:	60 e0       	ldi	r22, 0x00	; 0
    252e:	40 e0       	ldi	r20, 0x00	; 0
    2530:	0e 94 6e 09 	call	0x12dc	; 0x12dc <MDIO_voidSetPinMode>
    2534:	0e 94 0f 0b 	call	0x161e	; 0x161e <ADC_voidInit>
    2538:	0e 94 4a 07 	call	0xe94	; 0xe94 <TIMER0_voidInit>
    253c:	68 ee       	ldi	r22, 0xE8	; 232
    253e:	73 e0       	ldi	r23, 0x03	; 3
    2540:	80 e0       	ldi	r24, 0x00	; 0
    2542:	90 e0       	ldi	r25, 0x00	; 0
    2544:	0e 94 57 07 	call	0xeae	; 0xeae <TIMER0_voidSetTime>
    2548:	0e 94 8a 07 	call	0xf14	; 0xf14 <TIMER0_voidStart>
    254c:	81 e0       	ldi	r24, 0x01	; 1
    254e:	92 e1       	ldi	r25, 0x12	; 18
    2550:	0e 94 bf 07 	call	0xf7e	; 0xf7e <TIMER0_voidSetCallBack>
    2554:	80 e0       	ldi	r24, 0x00	; 0
    2556:	6c e1       	ldi	r22, 0x1C	; 28
    2558:	0e 94 bb 0a 	call	0x1576	; 0x1576 <MDIO_voidSetPortMode>
    255c:	80 e0       	ldi	r24, 0x00	; 0
    255e:	6c ef       	ldi	r22, 0xFC	; 252
    2560:	0e 94 ce 0a 	call	0x159c	; 0x159c <MDIO_voidSetPortValue>
    2564:	83 e0       	ldi	r24, 0x03	; 3
    2566:	63 e0       	ldi	r22, 0x03	; 3
    2568:	40 e0       	ldi	r20, 0x00	; 0
    256a:	0e 94 6e 09 	call	0x12dc	; 0x12dc <MDIO_voidSetPinMode>
    256e:	83 e0       	ldi	r24, 0x03	; 3
    2570:	63 e0       	ldi	r22, 0x03	; 3
    2572:	41 e0       	ldi	r20, 0x01	; 1
    2574:	0e 94 e8 09 	call	0x13d0	; 0x13d0 <MDIO_voidSetPinValue>
    2578:	85 e0       	ldi	r24, 0x05	; 5
    257a:	63 e0       	ldi	r22, 0x03	; 3
    257c:	41 e0       	ldi	r20, 0x01	; 1
    257e:	0e 94 6e 09 	call	0x12dc	; 0x12dc <MDIO_voidSetPinMode>
    2582:	0e 94 81 08 	call	0x1102	; 0x1102 <EXTI_voidINT1Init>
    2586:	0e 94 6f 08 	call	0x10de	; 0x10de <GIE_voidEnableGlobal>
    258a:	86 e9       	ldi	r24, 0x96	; 150
    258c:	9f e0       	ldi	r25, 0x0F	; 15
    258e:	61 e0       	ldi	r22, 0x01	; 1
    2590:	0e 94 e4 08 	call	0x11c8	; 0x11c8 <EXTI_u8INTSetCallBack>
    2594:	ff cf       	rjmp	.-2      	; 0x2594 <main+0xea>

00002596 <__mulsi3>:
    2596:	62 9f       	mul	r22, r18
    2598:	d0 01       	movw	r26, r0
    259a:	73 9f       	mul	r23, r19
    259c:	f0 01       	movw	r30, r0
    259e:	82 9f       	mul	r24, r18
    25a0:	e0 0d       	add	r30, r0
    25a2:	f1 1d       	adc	r31, r1
    25a4:	64 9f       	mul	r22, r20
    25a6:	e0 0d       	add	r30, r0
    25a8:	f1 1d       	adc	r31, r1
    25aa:	92 9f       	mul	r25, r18
    25ac:	f0 0d       	add	r31, r0
    25ae:	83 9f       	mul	r24, r19
    25b0:	f0 0d       	add	r31, r0
    25b2:	74 9f       	mul	r23, r20
    25b4:	f0 0d       	add	r31, r0
    25b6:	65 9f       	mul	r22, r21
    25b8:	f0 0d       	add	r31, r0
    25ba:	99 27       	eor	r25, r25
    25bc:	72 9f       	mul	r23, r18
    25be:	b0 0d       	add	r27, r0
    25c0:	e1 1d       	adc	r30, r1
    25c2:	f9 1f       	adc	r31, r25
    25c4:	63 9f       	mul	r22, r19
    25c6:	b0 0d       	add	r27, r0
    25c8:	e1 1d       	adc	r30, r1
    25ca:	f9 1f       	adc	r31, r25
    25cc:	bd 01       	movw	r22, r26
    25ce:	cf 01       	movw	r24, r30
    25d0:	11 24       	eor	r1, r1
    25d2:	08 95       	ret

000025d4 <__udivmodhi4>:
    25d4:	aa 1b       	sub	r26, r26
    25d6:	bb 1b       	sub	r27, r27
    25d8:	51 e1       	ldi	r21, 0x11	; 17
    25da:	07 c0       	rjmp	.+14     	; 0x25ea <__udivmodhi4_ep>

000025dc <__udivmodhi4_loop>:
    25dc:	aa 1f       	adc	r26, r26
    25de:	bb 1f       	adc	r27, r27
    25e0:	a6 17       	cp	r26, r22
    25e2:	b7 07       	cpc	r27, r23
    25e4:	10 f0       	brcs	.+4      	; 0x25ea <__udivmodhi4_ep>
    25e6:	a6 1b       	sub	r26, r22
    25e8:	b7 0b       	sbc	r27, r23

000025ea <__udivmodhi4_ep>:
    25ea:	88 1f       	adc	r24, r24
    25ec:	99 1f       	adc	r25, r25
    25ee:	5a 95       	dec	r21
    25f0:	a9 f7       	brne	.-22     	; 0x25dc <__udivmodhi4_loop>
    25f2:	80 95       	com	r24
    25f4:	90 95       	com	r25
    25f6:	bc 01       	movw	r22, r24
    25f8:	cd 01       	movw	r24, r26
    25fa:	08 95       	ret

000025fc <__udivmodsi4>:
    25fc:	a1 e2       	ldi	r26, 0x21	; 33
    25fe:	1a 2e       	mov	r1, r26
    2600:	aa 1b       	sub	r26, r26
    2602:	bb 1b       	sub	r27, r27
    2604:	fd 01       	movw	r30, r26
    2606:	0d c0       	rjmp	.+26     	; 0x2622 <__udivmodsi4_ep>

00002608 <__udivmodsi4_loop>:
    2608:	aa 1f       	adc	r26, r26
    260a:	bb 1f       	adc	r27, r27
    260c:	ee 1f       	adc	r30, r30
    260e:	ff 1f       	adc	r31, r31
    2610:	a2 17       	cp	r26, r18
    2612:	b3 07       	cpc	r27, r19
    2614:	e4 07       	cpc	r30, r20
    2616:	f5 07       	cpc	r31, r21
    2618:	20 f0       	brcs	.+8      	; 0x2622 <__udivmodsi4_ep>
    261a:	a2 1b       	sub	r26, r18
    261c:	b3 0b       	sbc	r27, r19
    261e:	e4 0b       	sbc	r30, r20
    2620:	f5 0b       	sbc	r31, r21

00002622 <__udivmodsi4_ep>:
    2622:	66 1f       	adc	r22, r22
    2624:	77 1f       	adc	r23, r23
    2626:	88 1f       	adc	r24, r24
    2628:	99 1f       	adc	r25, r25
    262a:	1a 94       	dec	r1
    262c:	69 f7       	brne	.-38     	; 0x2608 <__udivmodsi4_loop>
    262e:	60 95       	com	r22
    2630:	70 95       	com	r23
    2632:	80 95       	com	r24
    2634:	90 95       	com	r25
    2636:	9b 01       	movw	r18, r22
    2638:	ac 01       	movw	r20, r24
    263a:	bd 01       	movw	r22, r26
    263c:	cf 01       	movw	r24, r30
    263e:	08 95       	ret

00002640 <__divmodsi4>:
    2640:	97 fb       	bst	r25, 7
    2642:	09 2e       	mov	r0, r25
    2644:	05 26       	eor	r0, r21
    2646:	0e d0       	rcall	.+28     	; 0x2664 <__divmodsi4_neg1>
    2648:	57 fd       	sbrc	r21, 7
    264a:	04 d0       	rcall	.+8      	; 0x2654 <__divmodsi4_neg2>
    264c:	d7 df       	rcall	.-82     	; 0x25fc <__udivmodsi4>
    264e:	0a d0       	rcall	.+20     	; 0x2664 <__divmodsi4_neg1>
    2650:	00 1c       	adc	r0, r0
    2652:	38 f4       	brcc	.+14     	; 0x2662 <__divmodsi4_exit>

00002654 <__divmodsi4_neg2>:
    2654:	50 95       	com	r21
    2656:	40 95       	com	r20
    2658:	30 95       	com	r19
    265a:	21 95       	neg	r18
    265c:	3f 4f       	sbci	r19, 0xFF	; 255
    265e:	4f 4f       	sbci	r20, 0xFF	; 255
    2660:	5f 4f       	sbci	r21, 0xFF	; 255

00002662 <__divmodsi4_exit>:
    2662:	08 95       	ret

00002664 <__divmodsi4_neg1>:
    2664:	f6 f7       	brtc	.-4      	; 0x2662 <__divmodsi4_exit>
    2666:	90 95       	com	r25
    2668:	80 95       	com	r24
    266a:	70 95       	com	r23
    266c:	61 95       	neg	r22
    266e:	7f 4f       	sbci	r23, 0xFF	; 255
    2670:	8f 4f       	sbci	r24, 0xFF	; 255
    2672:	9f 4f       	sbci	r25, 0xFF	; 255
    2674:	08 95       	ret

00002676 <__prologue_saves__>:
    2676:	2f 92       	push	r2
    2678:	3f 92       	push	r3
    267a:	4f 92       	push	r4
    267c:	5f 92       	push	r5
    267e:	6f 92       	push	r6
    2680:	7f 92       	push	r7
    2682:	8f 92       	push	r8
    2684:	9f 92       	push	r9
    2686:	af 92       	push	r10
    2688:	bf 92       	push	r11
    268a:	cf 92       	push	r12
    268c:	df 92       	push	r13
    268e:	ef 92       	push	r14
    2690:	ff 92       	push	r15
    2692:	0f 93       	push	r16
    2694:	1f 93       	push	r17
    2696:	cf 93       	push	r28
    2698:	df 93       	push	r29
    269a:	cd b7       	in	r28, 0x3d	; 61
    269c:	de b7       	in	r29, 0x3e	; 62
    269e:	ca 1b       	sub	r28, r26
    26a0:	db 0b       	sbc	r29, r27
    26a2:	0f b6       	in	r0, 0x3f	; 63
    26a4:	f8 94       	cli
    26a6:	de bf       	out	0x3e, r29	; 62
    26a8:	0f be       	out	0x3f, r0	; 63
    26aa:	cd bf       	out	0x3d, r28	; 61
    26ac:	09 94       	ijmp

000026ae <__epilogue_restores__>:
    26ae:	2a 88       	ldd	r2, Y+18	; 0x12
    26b0:	39 88       	ldd	r3, Y+17	; 0x11
    26b2:	48 88       	ldd	r4, Y+16	; 0x10
    26b4:	5f 84       	ldd	r5, Y+15	; 0x0f
    26b6:	6e 84       	ldd	r6, Y+14	; 0x0e
    26b8:	7d 84       	ldd	r7, Y+13	; 0x0d
    26ba:	8c 84       	ldd	r8, Y+12	; 0x0c
    26bc:	9b 84       	ldd	r9, Y+11	; 0x0b
    26be:	aa 84       	ldd	r10, Y+10	; 0x0a
    26c0:	b9 84       	ldd	r11, Y+9	; 0x09
    26c2:	c8 84       	ldd	r12, Y+8	; 0x08
    26c4:	df 80       	ldd	r13, Y+7	; 0x07
    26c6:	ee 80       	ldd	r14, Y+6	; 0x06
    26c8:	fd 80       	ldd	r15, Y+5	; 0x05
    26ca:	0c 81       	ldd	r16, Y+4	; 0x04
    26cc:	1b 81       	ldd	r17, Y+3	; 0x03
    26ce:	aa 81       	ldd	r26, Y+2	; 0x02
    26d0:	b9 81       	ldd	r27, Y+1	; 0x01
    26d2:	ce 0f       	add	r28, r30
    26d4:	d1 1d       	adc	r29, r1
    26d6:	0f b6       	in	r0, 0x3f	; 63
    26d8:	f8 94       	cli
    26da:	de bf       	out	0x3e, r29	; 62
    26dc:	0f be       	out	0x3f, r0	; 63
    26de:	cd bf       	out	0x3d, r28	; 61
    26e0:	ed 01       	movw	r28, r26
    26e2:	08 95       	ret

000026e4 <_exit>:
    26e4:	f8 94       	cli

000026e6 <__stop_program>:
    26e6:	ff cf       	rjmp	.-2      	; 0x26e6 <__stop_program>
